******************************************************************************
               TMS320C6x Linker PC v7.4.7                      
******************************************************************************
>> Linked Tue Apr 29 09:25:09 2014

OUTPUT FILE NAME:   <Disparity.out>
ENTRY POINT SYMBOL: "_c_int00"  address: 803500a0


MEMORY CONFIGURATION

         name            origin    length      used     unused   attr    fill
----------------------  --------  ---------  --------  --------  ----  --------
  L2SRAM                00800000   00080000  0005cf40  000230c0  RW X
  MSMCSRAM              0c000000   00400000  00000000  00400000  RW X
  DDR3                  80000000   20000000  0037723e  1fc88dc2  RWIX


SEGMENT ALLOCATION MAP

run origin  load origin   length   init length attrs members
----------  ----------- ---------- ----------- ----- -------
00800000    00800000    0005cb88   00000000    rw-
  00800000    00800000    00052b00   00000000    rw- .far:NDK_PACKETMEM
  00852b00    00852b00    00004000   00000000    rw- .resmgr_memregion
  00856b00    00856b00    00003c00   00000000    rw- .far:taskStackSection
  0085a700    0085a700    00001488   00000000    rw- .resmgr_pa
  0085bb88    0085bb88    00001000   00000000    rw- .stack
0085cc00    0085cc00    00000318   00000318    rw-
  0085cc00    0085cc00    00000318   00000318    rw- .nimu_eth_ll2
0085cf20    0085cf20    000000a0   00000000    rw-
  0085cf20    0085cf20    000000a0   00000000    rw- .resmgr_handles
80000000    80000000    00300000   00000000    rw-
  80000000    80000000    00300000   00000000    rw- systemHeap
80300000    80300000    00058ee0   00058ee0    r-x
  80300000    80300000    00058ee0   00058ee0    r-x .text
80358ee0    80358ee0    0000dbc8   00000000    rw-
  80358ee0    80358ee0    0000dbc8   00000000    rw- .far.1
80366ab0    80366ab0    00000060   00000000    rw-
  80366ab0    80366ab0    00000060   00000000    rw- .far.2
80366b10    80366b10    00009e50   00009e50    r--
  80366b10    80366b10    00009e50   00009e50    r-- .const
80370960    80370960    00000020   00000020    rw-
  80370960    80370960    00000020   00000020    rw- .fardata.1
80370980    80370980    00002400   00000000    rw-
  80370980    80370980    00002400   00000000    rw- .qmss
80372d80    80372d80    0000156a   0000156a    rw-
  80372d80    80372d80    0000156a   0000156a    rw- .fardata.2
803742f0    803742f0    00001370   00001370    rw-
  803742f0    803742f0    00001370   00001370    rw- platform_lib
80375660    80375660    000003a8   000003a8    r--
  80375660    80375660    000003a8   000003a8    r-- .switch
80375a08    80375a08    0000006c   00000000    rw-
  80375a08    80375a08    0000006c   00000000    rw- .bss
80375a74    80375a74    000001a1   000001a1    rw-
  80375a74    80375a74    000001a1   000001a1    rw- .neardata
80375c18    80375c18    0000003c   0000003c    r--
  80375c18    80375c18    0000003c   0000003c    r-- .rodata
80375c80    80375c80    00000320   00000000    rw-
  80375c80    80375c80    00000200   00000000    rw- .cppi
  80375e80    80375e80    00000120   00000000    rw- .cio
80376000    80376000    000012d8   000012d8    r-x
  80376000    80376000    00000200   00000200    r-x .vecs
  80376200    80376200    000010d8   000010d8    r-- .cinit


SECTION ALLOCATION MAP

 output                                  attributes/
section   page    origin      length       input sections
--------  ----  ----------  ----------   ----------------
.init_array 
*          0    80000000    00000000     UNINITIALIZED

.far:NDK_PACKETMEM 
*          0    00800000    00052b00     UNINITIALIZED
                  00800000    00052b00     stk6_ppp_pppoe.ae66 : pbm_data.oe66 (.far:NDK_PACKETMEM)

.resmgr_memregion 
*          0    00852b00    00004000     UNINITIALIZED
                  00852b00    00004000     resourcemgr.obj (.resmgr_memregion)

.far:taskStackSection 
*          0    00856b00    00003c00     UNINITIALIZED
                  00856b00    00003c00     Disparity_pe66.oe66 (.far:taskStackSection)

.resmgr_pa 
*          0    0085a700    00001488     UNINITIALIZED
                  0085a700    00001488     resourcemgr.obj (.resmgr_pa)

.stack     0    0085bb88    00001000     UNINITIALIZED
                  0085bb88    00000008     boot.ae66 : boot.oe66 (.stack)
                  0085bb90    00000ff8     --HOLE--

.nimu_eth_ll2 
*          0    0085cc00    00000318     
                  0085cc00    00000308     ti.transport.ndk.nimu.ae66 : nimu_eth.obj (.nimu_eth_ll2:uninit) [fill = 0]
                  0085cf08    00000010                                : nimu_eth.obj (.nimu_eth_ll2:init)

.resmgr_handles 
*          0    0085cf20    000000a0     UNINITIALIZED
                  0085cf20    000000a0     resourcemgr.obj (.resmgr_handles)

systemHeap 
*          0    80000000    00300000     UNINITIALIZED
                  80000000    00300000     Disparity_pe66.oe66 (systemHeap)

xdc.meta   0    80000000    00000100     COPY SECTION
                  80000000    00000100     Disparity_pe66.oe66 (xdc.meta)

.text      0    80300000    00058ee0     
                  80300000    00001e40     ti.transport.ndk.nimu.ae66 : nimu_eth.obj (.text)
                  80301e40    00001a20     ti.platform.evm6678l.ae66 : platform.obj (.text)
                  80303860    000019e0     stk6_ppp_pppoe.ae66 : tcp6in.oe66 (.text:TCP6Input)
                  80305240    000019e0                         : tcpin.oe66 (.text:TcpInput)
                  80306c20    00001240                         : tcpout.oe66 (.text:TcpOutput)
                  80307e60    000011a0                         : tcp6out.oe66 (.text:TCP6Output)
                  80309000    00000ea0     resourcemgr.obj (.text)
                  80309ea0    00000c00     nettool.ae66 : httpclie.oe66 (.text:httpClientProcess)
                  8030aaa0    00000b80     stk6_ppp_pppoe.ae66 : ipin.oe66 (.text:IPRxPacket)
                  8030b620    00000b40     ti.platform.evm6678l.ae66 : evm66x_nand.obj (.text)
                  8030c160    00000aa0     stk6_ppp_pppoe.ae66 : md5.oe66 (.text:MD5Transform)
                  8030cc00    000009c0                         : ipout.oe66 (.text:IPTxPacket)
                  8030d5c0    000009a0                         : lcp.oe66 (.text:lcpInput)
                  8030df60    000009a0     ti.platform.evm6678l.ae66 : evmc6678.obj (.text)
                  8030e900    00000900     nettool.ae66 : httpsend.oe66 (.text:SetContentType)
                  8030f200    000008a0     sysbios.ae66 : BIOS.obj (.text:ti_sysbios_family_c64p_Exception_handler__I)
                  8030faa0    000008a0     ti.targets.rts6000.ae66 : System.oe66 (.text:xdc_runtime_System_doPrint__I)
                  80310340    00000840     Initialise.obj (.text)
                  80310b80    000007e0     ti.drv.qmss.ae66 : qmss_drv.oe66 (.text:Qmss_insertMemoryRegion)
                  80311360    000007e0     stk6_ppp_pppoe.ae66 : ipcp.oe66 (.text:ipcpInput)
                  80311b40    000007c0                         : sock.oe66 (.text:SockSet)
                  80312300    000007a0                         : fileuser.oe66 (.text:fdPoll)
                  80312aa0    000007a0     ti.platform.evm6678l.ae66 : evmc66x_i2c_eeprom.obj (.text)
                  80313240    00000720     ti.drv.pa.ae66 : pa.oe66 (.text:Pa_addMac)
                  80313960    000006c0     stk6_ppp_pppoe.ae66 : sock6.oe66 (.text:Sock6Set)
                  80314020    000006c0     nettool.ae66 : telnetd.oe66 (.text:telnet_netdata)
                  803146e0    000006a0     stk6_ppp_pppoe.ae66 : icmpv6_ndisc.oe66 (.text:ICMPv6RecvRA)
                  80314d80    00000660     ti.drv.cppi.ae66 : cppi_drv.oe66 (.text:Cppi_configureRxFlow)
                  803153e0    00000660     stk6_ppp_pppoe.ae66 : route6.oe66 (.text:Rt6Create)
                  80315a40    00000620     sysbios.ae66 : BIOS.obj (.text:ti_sysbios_knl_Task_Instance_finalize__F)
                  80316060    00000600                  : BIOS.obj (.text:ti_sysbios_heaps_HeapMem_alloc__E)
                  80316660    00000600                  : BIOS.obj (.text:ti_sysbios_knl_Semaphore_pend__E)
                  80316c60    000005e0     DisparityInline.obj (.text)
                  80317240    000005e0     sysbios.ae66 : BIOS.obj (.text:ti_sysbios_heaps_HeapMem_free__E)
                  80317820    000005c0     stk6_ppp_pppoe.ae66 : ipfrag.oe66 (.text:IPReasm)
                  80317de0    000005c0     rts6600_elf_mt.lib : divd.obj (.text:__c6xabi_divd)
                  803183a0    000005c0                        : _printfi.obj (.text:_getarg_diouxp)
                  80318960    000005a0     stk6_ppp_pppoe.ae66 : icmpin.oe66 (.text:ICMPInput)
                  80318f00    000005a0     sysbios.ae66 : BIOS.obj (.text:ti_sysbios_timers_timer64_Timer_Module_startup__F)
                  803194a0    00000580     stk6_ppp_pppoe.ae66 : nimuppp.oe66 (.text:pppEvent)
                  80319a20    00000560                         : bind6.oe66 (.text:Bind6New)
                  80319f80    00000560                         : ipv6.oe66 (.text:IPv6IPAddressToString)
                  8031a4e0    00000540                         : sock6.oe66 (.text:Sock6Connect)
                  8031aa20    00000520                         : sock.oe66 (.text:SockNew)
                  8031af40    00000520     rts6600_elf_mt.lib : _printfi.obj (.text:_setfield)
                  8031b460    00000520     nettool.ae66 : httpsend.oe66 (.text:httpSendStatusLine)
                  8031b980    000004e0     stk6_ppp_pppoe.ae66 : udp.oe66 (.text:UdpInput)
                  8031be60    000004e0                         : nimupppoe.oe66 (.text:pppoeInputS)
                  8031c340    000004c0     ti.drv.cppi.ae66 : cppi_drv.oe66 (.text:Cppi_txChannelOpen)
                  8031c800    000004a0     stk6_ppp_pppoe.ae66 : lliin.oe66 (.text:LLIRxPacket)
                  8031cca0    000004a0                         : sock6.oe66 (.text:Sock6Recv)
                  8031d140    000004a0                         : sock.oe66 (.text:SockRecv)
                  8031d5e0    00000460     rts6600_elf_mt.lib : _printfi.obj (.text:_printfi)
                  8031da40    00000460     stk6_ppp_pppoe.ae66 : nimuppp.oe66 (.text:pppNew)
                  8031dea0    00000460     ti.platform.evm6678l.ae66 : evmc66x_spi.obj (.text)
                  8031e300    00000440     ti.drv.cppi.ae66 : cppi_drv.oe66 (.text:Cppi_rxChannelOpen)
                  8031e740    00000440     stk6_ppp_pppoe.ae66 : sock6.oe66 (.text:Sock6New)
                  8031eb80    00000440                         : auth.oe66 (.text:chapInput)
                  8031efc0    00000440                         : fileuser.oe66 (.text:fdSelect)
                  8031f400    00000440                         : nimupppoe.oe66 (.text:pppoeInputC)
                  8031f840    00000420     nettool.ae66 : daemon.oe66 (.text:daemon)
                  8031fc60    00000420     ti.drv.pa.ae66 : pa.oe66 (.text:pa_conv_routing_info)
                  80320080    00000420     sysbios.ae66 : BIOS.obj (.text:ti_sysbios_knl_Task_sleep__E)
                  803204a0    00000400     stk6_ppp_pppoe.ae66 : sock6.oe66 (.text:Sock6Send)
                  803208a0    00000400     os.ae66 : efs.oe66 (.text:efs_filecheck)
                  80320ca0    00000400     sysbios.ae66 : BIOS.obj (.text:ti_sysbios_knl_Task_Instance_init__F)
                  803210a0    000003e0     stk6_ppp_pppoe.ae66 : ipv6_frag.oe66 (.text:IPv6TxFragPacket)
                  80321480    000003e0     sysbios.ae66 : BIOS.obj (.text:ti_sysbios_knl_Task_setPri__E)
                  80321860    000003c0     ti.drv.cppi.ae66 : cppi_desc.oe66 (.text:Cppi_initDescriptor)
                  80321c20    000003c0     stk6_ppp_pppoe.ae66 : ipv6out.oe66 (.text:IPv6TxPacket)
                  80321fe0    000003c0                         : lli6.oe66 (.text:LLI6TimerCheck)
                  803223a0    000003c0                         : sock.oe66 (.text:SockSend)
                  80322760    000003c0                         : tcp6.oe66 (.text:TCP6TimeoutCheck)
                  80322b20    000003c0                         : tcp.oe66 (.text:TcpTimeoutCheck)
                  80322ee0    000003c0     rts6600_elf_mt.lib : fputs.obj (.text:fputs)
                  803232a0    000003c0     ti.platform.evm6678l.ae66 : evmc66x_nor.obj (.text)
                  80323660    000003a0     stk6_ppp_pppoe.ae66 : icmpv6in.oe66 (.text:ICMPv6RxPacket)
                  80323a00    000003a0                         : nimu.oe66 (.text:NIMUIoctl)
                  80323da0    000003a0                         : route.oe66 (.text:RtCreate)
                  80324140    000003a0                         : sb.oe66 (.text:SBRead)
                  803244e0    000003a0                         : auth.oe66 (.text:papInput)
                  80324880    00000380                         : sock6int.oe66 (.text:Sock6Notify)
                  80324c00    00000380                         : sock.oe66 (.text:SockConnect)
                  80324f80    00000380                         : sockint.oe66 (.text:SockNotify)
                  80325300    00000380     nettool.ae66 : dhcppkt.oe66 (.text:dhcpPacketProcess)
                  80325680    00000380     ti.platform.evm6678l.ae66 : evmc66x_fpga.obj (.text)
                  80325a00    00000360     stk6_ppp_pppoe.ae66 : icmpv6_ndisc.oe66 (.text:ICMPv6RecvRedirect)
                  80325d60    00000360                         : icmpv6out.oe66 (.text:ICMPv6SendDstUnreachable)
                  803260c0    00000360                         : igmp.oe66 (.text:IGMPInput)
                  80326420    00000360                         : ipv6_frag.oe66 (.text:IPv6FragReasm)
                  80326780    00000360                         : lliout.oe66 (.text:LLITxIpPacket)
                  80326ae0    00000340                         : icmpv6_ndisc.oe66 (.text:ICMPv6RecvNS)
                  80326e20    00000340                         : icmpv6out.oe66 (.text:ICMPv6SendParameterProblem)
                  80327160    00000340                         : icmpv6out.oe66 (.text:ICMPv6SendTimeExceeded)
                  803274a0    00000340     ti.drv.pa.ae66 : painit.oe66 (.text:Pa_create)
                  803277e0    00000340     ti.drv.qmss.ae66 : qmss_drv.oe66 (.text:Qmss_init)
                  80327b20    00000340     os.ae66 : mem.oe66 (.text:mmAlloc)
                  80327e60    00000340     stk6_ppp_pppoe.ae66 : nimupppoe.oe66 (.text:pppoeSI)
                  803281a0    00000320     nettool.ae66 : config.oe66 (.text:CfgAddEntry)
                  803284c0    00000320     stk6_ppp_pppoe.ae66 : nimupppoe.oe66 (.text:SendServerMsg)
                  803287e0    00000320     rts6600_elf_mt.lib : _printfi.obj (.text:_pproc_fge)
                  80328b00    00000320     nettool.ae66 : inetaddr.oe66 (.text:inet_aton)
                  80328e20    00000320                  : telnetd.oe66 (.text:telnet_engine)
                  80329140    00000320     ti.platform.evm6678l.ae66 : evmc6678_phy.obj (.text)
                  80329460    00000300     stk6_ppp_pppoe.ae66 : sock6pcb.oe66 (.text:Sock6PcbBind)
                  80329760    00000300                         : udp6.oe66 (.text:Udp6Input)
                  80329a60    00000300     sysbios.ae66 : BIOS.obj (.text:ti_sysbios_family_c64p_Hwi_dispatchC__I)
                  80329d60    000002e0     stk6_ppp_pppoe.ae66 : ipv6_frag.oe66 (.text:IPv6FragQEnqueueFrag)
                  8032a040    000002e0                         : ipv6_exthdrs.oe66 (.text:IPv6ParseExtnHeaders)
                  8032a320    000002e0     netctrl.ae66 : netctrl.oe66 (.text:NetScheduler)
                  8032a600    000002e0     ti.drv.pa.ae66 : pa.oe66 (.text:Pa_forwardResult)
                  8032a8e0    000002e0     stk6_ppp_pppoe.ae66 : route6.oe66 (.text:Rt6Find)
                  8032abc0    000002e0                         : nimupppoe.oe66 (.text:SendClientMsg)
                  8032aea0    000002e0                         : sock6pcb.oe66 (.text:Sock6PcbFind)
                  8032b180    000002e0                         : sock6pcb.oe66 (.text:Sock6PcbResolve)
                  8032b460    000002e0                         : udp.oe66 (.text:UdpOutput)
                  8032b740    000002e0     rts6600_elf_mt.lib : _printfi.obj (.text:_pproc_fwp)
                  8032ba20    000002e0     sysbios.ae66 : BIOS.obj (.text:ti_sysbios_heaps_HeapMem_Instance_init__F)
                  8032bd00    000002c0     stk6_ppp_pppoe.ae66 : bind.oe66 (.text:BindNew)
                  8032bfc0    000002c0                         : node.oe66 (.text:NodeAdd)
                  8032c280    000002c0                         : sb6.oe66 (.text:SB6Read)
                  8032c540    000002c0                         : nimuppp.oe66 (.text:pppInput)
                  8032c800    000002a0     nettool.ae66 : dhcpmain.oe66 (.text:DHCPOpen)
                  8032caa0    000002a0     stk6_ppp_pppoe.ae66 : route6.oe66 (.text:Rt6Free)
                  8032cd40    000002a0                         : rtable.oe66 (.text:RtFind)
                  8032cfe0    000002a0                         : sock6.oe66 (.text:Sock6Close)
                  8032d280    000002a0                         : sock.oe66 (.text:SockClose)
                  8032d520    000002a0                         : sockpcb.oe66 (.text:SockPcbResolve)
                  8032d7c0    000002a0                         : tcp6prot.oe66 (.text:TCP6PrSetOption)
                  8032da60    000002a0                         : tcpprot.oe66 (.text:TcpPrSetOption)
                  8032dd00    000002a0     rts6600_elf_mt.lib : _printfi.obj (.text:fcvt)
                  8032dfa0    000002a0     sysbios.ae66 : BIOS.obj (.text:ti_sysbios_knl_Clock_Instance_init__F)
                  8032e240    000002a0                  : BIOS.obj (.text:ti_sysbios_knl_Clock_workFunc__E)
                  8032e4e0    000002a0                  : BIOS.obj (.text:ti_sysbios_timers_timer64_Timer_deviceConfig__I)
                  8032e780    00000280     stk6_ppp_pppoe.ae66 : icmp.oe66 (.text:ICMPGenPacket)
                  8032ea00    00000280                         : lli6.oe66 (.text:LLI6NeighUnreachStateMachine)
                  8032ec80    00000280                         : lli6.oe66 (.text:LLI6TxIPPacket)
                  8032ef00    00000280                         : udp6.oe66 (.text:Udp6Output)
                  8032f180    00000280     rts6600_elf_mt.lib : divf.obj (.text:__c6xabi_divf)
                  8032f400    00000280                        : _printfi.obj (.text:ecvt)
                  8032f680    00000280     stk6_ppp_pppoe.ae66 : ipcp.oe66 (.text:ipcpSendCfg)
                  8032f900    00000280                         : lcp.oe66 (.text:lcpSendCfg)
                  8032fb80    00000280     platform_osal.obj (.text)
                  8032fe00    00000280     ti.targets.rts6000.ae66 : Error.oe66 (.text:xdc_runtime_Error_raiseX__F)
                  80330080    00000260     stk6_ppp_pppoe.ae66 : icmpv6in.oe66 (.text:ICMPv6RecvEchoRequest)
                  803302e0    00000260                         : ipv6in.oe66 (.text:IPv6RxPacket)
                  80330540    00000260                         : nimu.oe66 (.text:NIMUReceivePacket)
                  803307a0    00000260                         : rawethsock.oe66 (.text:RawEthSockSet)
                  80330a00    00000260                         : sb6.oe66 (.text:SB6Write)
                  80330c60    00000260                         : sb.oe66 (.text:SBWrite)
                  80330ec0    00000260                         : sockpcb.oe66 (.text:SockPcbBind)
                  80331120    00000260                         : tcp6out.oe66 (.text:TCP6GenPacket)
                  80331380    00000260     nettool.ae66 : httppars.oe66 (.text:httpParseRecv)
                  803315e0    00000260                  : httpsend.oe66 (.text:httpSendErrorHTML)
                  80331840    00000260     sysbios.ae66 : BIOS.obj (.text:ti_sysbios_family_c64p_Exception_internalHandler__I)
                  80331aa0    00000260                  : BIOS.obj (.text:ti_sysbios_knl_Semaphore_post__E)
                  80331d00    00000260     ti.targets.rts6000.ae66 : Startup.oe66 (.text:xdc_runtime_Startup_startMods__I)
                  80331f60    00000260     Disparity_pe66.oe66 (.text:xdc_runtime_System_printfExtend__I)
                  803321c0    00000240     stk6_ppp_pppoe.ae66 : bind6.oe66 (.text:Bind6Free)
                  80332400    00000240                         : bind6.oe66 (.text:Bind6RunDAD)
                  80332640    00000240     ti.drv.cppi.ae66 : cppi_drv.oe66 (.text:Cppi_open)
                  80332880    00000240     nettool.ae66 : daemon.oe66 (.text:DaemonNew)
                  80332ac0    00000240     stk6_ppp_pppoe.ae66 : icmpv6_ndisc.oe66 (.text:ICMPv6RecvNA)
                  80332d00    00000240                         : icmpv6_ndisc.oe66 (.text:ICMPv6SendNA)
                  80332f40    00000240                         : icmpv6_ndisc.oe66 (.text:ICMPv6SendNS)
                  80333180    00000240     ti.drv.pa.ae66 : pa.oe66 (.text:Pa_resetControl)
                  803333c0    00000240     stk6_ppp_pppoe.ae66 : pipe.oe66 (.text:PipeRecv)
                  80333600    00000240                         : raw.oe66 (.text:RawInput)
                  80333840    00000240                         : tcpout.oe66 (.text:TcpGenPacket)
                  80333a80    00000240     rts6600_elf_mt.lib : imath64.obj (.text:__c6xabi_divull)
                  80333cc0    00000240                        : _printfi.obj (.text:_pconv_e)
                  80333f00    00000240                        : _printfi.obj (.text:_pproc_diouxp)
                  80334140    00000240     nettool.ae66 : dhcpsm.oe66 (.text:dhcpIPAdd)
                  80334380    00000240                  : dhcpsm.oe66 (.text:dhcpState)
                  803345c0    00000240     rts6600_elf_mt.lib : fputc.obj (.text:fputc)
                  80334800    00000240     sysbios.ae66 : BIOS.obj (.text:ti_sysbios_knl_Task_exit__E)
                  80334a40    00000240     ti.targets.rts6000.ae66 : LoggerBuf.oe66 (.text:xdc_runtime_LoggerBuf_write8__F)
                  80334c80    00000220     stk6_ppp_pppoe.ae66 : igmp.oe66 (.text:IGMPJoinHostGroup)
                  80334ea0    00000220                         : ipv6_frag.oe66 (.text:IPv6ParseFragHdr)
                  803350c0    00000220                         : raw6.oe66 (.text:Raw6Output)
                  803352e0    00000220                         : rawethsock.oe66 (.text:RawEthSockNew)
                  80335500    00000220                         : sockpcb.oe66 (.text:SockPcbFind)
                  80335720    00000220     rts6600_elf_mt.lib : _printfi.obj (.text:_pproc_str)
                  80335940    00000220     nettool.ae66 : dhcppkt.oe66 (.text:dhcpVerifyMessage)
                  80335b60    00000220                  : httpclie.oe66 (.text:httpGetAuthParams)
                  80335d80    00000220     rts6600_elf_mt.lib : setvbuf.obj (.text:setvbuf)
                  80335fa0    00000220     sysbios.ae66 : BIOS.obj (.text:ti_sysbios_knl_Swi_run__I)
                  803361c0    00000220                  : BIOS.obj (.text:ti_sysbios_knl_Task_schedule__I)
                  803363e0    00000220                  : BIOS.obj (.text:ti_sysbios_knl_Task_startCore__E)
                  80336600    00000220     ti.targets.rts6000.ae66 : Core-mem.oe66 (.text:xdc_runtime_Core_createObject__I)
                  80336820    00000200     DataTransfer.obj (.text)
                  80336a20    00000200     stk6_ppp_pppoe.ae66 : ipv6_exthdrs.oe66 (.text:IPv6ParseHopOptions)
                  80336c20    00000200                         : lli6.oe66 (.text:LLI6New)
                  80336e20    00000200     ti.drv.qmss.ae66 : qmss_drv.oe66 (.text:Qmss_internalQueueOpen)
                  80337020    00000200                      : qmss_acc.oe66 (.text:Qmss_programAccumulator)
                  80337220    00000200     stk6_ppp_pppoe.ae66 : rtc.oe66 (.text:RTCReport)
                  80337420    00000200     rts6600_elf_mt.lib : _printfi.obj (.text:_pconv_g)
                  80337620    00000200     sysbios.ae66 : c64p_Hwi_disp_always.obj (.text:_ti_sysbios_family_c64p_Hwi_dispatchAlways)
                  80337820    00000200     stk6_ppp_pppoe.ae66 : socket.oe66 (.text:accept)
                  80337a20    00000200     ti.drv.cppi.ae66 : cppi_heap.oe66 (.text:cppi_internal_heap_add)
                  80337c20    00000200     stk6_ppp_pppoe.ae66 : nimupppoe.oe66 (.text:pppoeCtrlMsg)
                  80337e20    000001e0                         : igmp.oe66 (.text:IGMPSendReply)
                  80338000    000001e0                         : route6.oe66 (.text:Rt6Modify)
                  803381e0    000001e0                         : sock6pcb.oe66 (.text:Sock6PcbFindRaw)
                  803383c0    000001e0                         : auth.oe66 (.text:chapSendMsg)
                  803385a0    000001e0     nettool.ae66 : dhcpsock.oe66 (.text:dhcpSocketOpen)
                  80338780    000001e0     stk6_ppp_pppoe.ae66 : socket.oe66 (.text:sendto)
                  80338960    000001e0     sysbios.ae66 : BIOS.obj (.text:ti_sysbios_family_c64p_Exception_externalHandler__I)
                  80338b40    000001e0                  : BIOS.obj (.text:ti_sysbios_knl_Task_checkStacks__E)
                  80338d20    000001e0                  : BIOS.obj (.text:ti_sysbios_knl_Task_postInit__I)
                  80338f00    000001e0                  : BIOS.obj (.text:ti_sysbios_timers_timer64_Timer_getFreq__E)
                  803390e0    000001c0     nettool.ae66 : config.oe66 (.text:CfgExecute)
                  803392a0    000001c0     ti.drv.cppi.ae66 : cppi_drv.oe66 (.text:Cppi_channelClose)
                  80339460    000001c0                      : cppi_drv.oe66 (.text:Cppi_initCfg)
                  80339620    000001c0     stk6_ppp_pppoe.ae66 : ip.oe66 (.text:IPGetRoute)
                  803397e0    000001c0                         : lliout.oe66 (.text:LLIGenArpPacket)
                  803399a0    000001c0     ti.drv.qmss.ae66 : qmss_drv.oe66 (.text:Qmss_internaldownloadFirmware)
                  80339b60    000001c0     stk6_ppp_pppoe.ae66 : raw6.oe66 (.text:Raw6Input)
                  80339d20    000001c0     netctrl.ae66 : netsrv.oe66 (.text:SPIpNet)
                  80339ee0    000001c0     stk6_ppp_pppoe.ae66 : tcptime.oe66 (.text:TcpTimeoutRexmt)
                  8033a0a0    000001c0                         : lli.oe66 (.text:_LLITimeoutCheck)
                  8033a260    000001c0     rts6600_elf_mt.lib : _printfi.obj (.text:_mcpy)
                  8033a420    000001c0     nettool.ae66 : dhcpbild.oe66 (.text:dhcpBuildHeader)
                  8033a5e0    000001c0     stk6_ppp_pppoe.ae66 : fileuser.oe66 (.text:fdClose)
                  8033a7a0    000001c0     ti.platform.evm6678l.ae66 : evmc66x_uart.obj (.text)
                  8033a960    000001c0     sysbios.ae66 : BIOS.obj (.text:ti_sysbios_family_c64p_Exception_decodeMpfsr__I)
                  8033ab20    000001c0                  : BIOS.obj (.text:ti_sysbios_gates_GateMutex_enter__E)
                  8033ace0    000001c0                  : BIOS.obj (.text:ti_sysbios_timers_timer64_Timer_setPeriodMicroSecs__E)
                  8033aea0    000001c0     ti.targets.rts6000.ae66 : Text.oe66 (.text:xdc_runtime_Text_putSite__F)
                  8033b060    000001a0     stk6_ppp_pppoe.ae66 : bind6.oe66 (.text:Bind6Msg)
                  8033b200    000001a0     nettool.ae66 : config.oe66 (.text:CfgRemoveEntry)
                  8033b3a0    000001a0     stk6_ppp_pppoe.ae66 : icmpin.oe66 (.text:ICMPRevSrcRoute)
                  8033b540    000001a0                         : ipv6_frag.oe66 (.text:IPv6FragMsg)
                  8033b6e0    000001a0                         : ipv6_exthdrs.oe66 (.text:IPv6ParseRoutingHdr)
                  8033b880    000001a0     netctrl.ae66 : netctrl.oe66 (.text:NC_NetStart)
                  8033ba20    000001a0     stk6_ppp_pppoe.ae66 : node.oe66 (.text:NodeTreeFree)
                  8033bbc0    000001a0     ti.drv.pa.ae66 : pa.oe66 (.text:Pa_downloadImage)
                  8033bd60    000001a0     stk6_ppp_pppoe.ae66 : route6.oe66 (.text:Route6LifetimeMgmt)
                  8033bf00    000001a0                         : sockint.oe66 (.text:SockCreatePacket)
                  8033c0a0    000001a0     nettool.ae66 : dhcpsm.oe66 (.text:StateRenewRebind)
                  8033c240    000001a0     stk6_ppp_pppoe.ae66 : tcp6time.oe66 (.text:TCP6TimeoutRexmt)
                  8033c3e0    000001a0     rts6600_elf_mt.lib : imath40.obj (.text:__c6xabi_divul)
                  8033c580    000001a0     nettool.ae66 : dhcptags.oe66 (.text:dhcpBuildOptions)
                  8033c720    000001a0     stk6_ppp_pppoe.ae66 : socket.oe66 (.text:getpeername)
                  8033c8c0    000001a0                         : udp6.oe66 (.text:processMulticast)
                  8033ca60    000001a0     nettool.ae66 : telnetd.oe66 (.text:telnet_termdata)
                  8033cc00    000001a0     sysbios.ae66 : BIOS.obj (.text:ti_sysbios_family_c66_Cache_block__I)
                  8033cda0    000001a0                  : BIOS.obj (.text:ti_sysbios_heaps_HeapBuf_Module_startup__F)
                  8033cf40    000001a0                  : BIOS.obj (.text:ti_sysbios_timers_timer64_Timer_start__E)
                  8033d0e0    000001a0     ti.targets.rts6000.ae66 : LoggerBuf.oe66 (.text:xdc_runtime_LoggerBuf_write4__F)
                  8033d280    00000180     stk6_ppp_pppoe.ae66 : bind6.oe66 (.text:Bind6GetGlobalAddress)
                  8033d400    00000180     Controller.obj (.text)
                  8033d580    00000180     rts6600_elf_mt.lib : trgdrv.obj (.text:HOSTrename)
                  8033d700    00000180     stk6_ppp_pppoe.ae66 : igmp.oe66 (.text:IGMPMsg)
                  8033d880    00000180                         : nimu.oe66 (.text:NIMURegister)
                  8033da00    00000180     netctrl.ae66 : netsrv.oe66 (.text:ServiceScan)
                  8033db80    00000180                  : netsrv.oe66 (.text:ServiceSpawn)
                  8033dd00    00000180     stk6_ppp_pppoe.ae66 : sock6int.oe66 (.text:Sock6CreatePacket)
                  8033de80    00000180     nettool.ae66 : dhcpsm.oe66 (.text:StateBound)
                  8033e000    00000180     rts6600_elf_mt.lib : copy_decompress_rle.obj (.text:__TI_decompress_rle_core)
                  8033e180    00000180     stk6_ppp_pppoe.ae66 : socket.oe66 (.text:bind)
                  8033e300    00000180     nettool.ae66 : dhcpbild.oe66 (.text:dhcpBuildRequest)
                  8033e480    00000180     os.ae66 : task.oe66 (.text:llEnter)
                  8033e600    00000180     stk6_ppp_pppoe.ae66 : auth.oe66 (.text:papSendCfg)
                  8033e780    00000180     sysbios.ae66 : c64p_Exception_asm.obj (.text)
                  8033e900    00000180                  : BIOS.obj (.text:ti_sysbios_knl_Swi_schedule__I)
                  8033ea80    00000180                  : BIOS.obj (.text:ti_sysbios_knl_Task_unblockI__E)
                  8033ec00    00000160     nettool.ae66 : config.oe66 (.text:CfgGetEntry)
                  8033ed60    00000160                  : config.oe66 (.text:CfgGetNextEntry)
                  8033eec0    00000160     stk6_ppp_pppoe.ae66 : igmp.oe66 (.text:IGMPDoMCast)
                  8033f020    00000160                         : nimu.oe66 (.text:NIMUIoctlSpecialCmd)
                  8033f180    00000160                         : nimuppp.oe66 (.text:PPPStop)
                  8033f2e0    00000160                         : pipe.oe66 (.text:PipeSend)
                  8033f440    00000160                         : raw.oe66 (.text:RawOutput)
                  8033f5a0    00000160                         : rtable.oe66 (.text:RtTimeoutCheck)
                  8033f700    00000160                         : rtable.oe66 (.text:RtWalkNext)
                  8033f860    00000160     netctrl.ae66 : netsrv.oe66 (.text:SPRoute)
                  8033f9c0    00000160     stk6_ppp_pppoe.ae66 : sock6.oe66 (.text:Sock6Check)
                  8033fb20    00000160                         : sock6pcb.oe66 (.text:Sock6PcbConnect)
                  8033fc80    00000160                         : sock.oe66 (.text:SockCheck)
                  8033fde0    00000160                         : sockpcb.oe66 (.text:SockPcbConnect)
                  8033ff40    00000160     nettool.ae66 : dhcpsm.oe66 (.text:StateRequesting)
                  803400a0    00000160     stk6_ppp_pppoe.ae66 : tcp6time.oe66 (.text:TCP6TimeoutKeep)
                  80340200    00000160                         : tcptime.oe66 (.text:TcpTimeoutKeep)
                  80340360    00000160                         : auth.oe66 (.text:authInit)
                  803404c0    00000160     nettool.ae66 : httpclie.oe66 (.text:httpExtractTag)
                  80340620    00000160     stk6_ppp_pppoe.ae66 : sock6.oe66 (.text:joinGroup)
                  80340780    00000160                         : socket.oe66 (.text:setsockopt)
                  803408e0    00000160     nettool.ae66 : telnetd.oe66 (.text:telnetClientProcess)
                  80340a40    00000140     stk6_ppp_pppoe.ae66 : bind6.oe66 (.text:Bind6DADCheck)
                  80340b80    00000140     ti.csl.ae66 : csl_chip.oe66 (.text:CSL_chipReadReg)
                  80340cc0    00000140     stk6_ppp_pppoe.ae66 : exec.oe66 (.text:ExecOpen)
                  80340e00    00000140                         : icmp.oe66 (.text:ICMPSendRtAdv)
                  80340f40    00000140                         : igmp.oe66 (.text:IGMPJoin)
                  80341080    00000140                         : ipv6.oe66 (.text:IPv6DisplayIPAddress)
                  803411c0    00000140                         : lli6.oe66 (.text:LLI6Find)
                  80341300    00000140                         : lli.oe66 (.text:LLINew)
                  80341440    00000140                         : node.oe66 (.text:NodeFind)
                  80341580    00000140                         : node.oe66 (.text:NodeWalk)
                  803416c0    00000140                         : pbm.oe66 (.text:PBM_alloc)
                  80341800    00000140                         : pbm.oe66 (.text:PBM_free)
                  80341940    00000140                         : rtable.oe66 (.text:RtFlush)
                  80341a80    00000140                         : sb6.oe66 (.text:SB6New)
                  80341bc0    00000140     netctrl.ae66 : netsrv.oe66 (.text:ServiceKill)
                  80341d00    00000140     stk6_ppp_pppoe.ae66 : sock6.oe66 (.text:Sock6Accept)
                  80341e40    00000140                         : sock6.oe66 (.text:Sock6Listen)
                  80341f80    00000140                         : sock.oe66 (.text:SockAccept)
                  803420c0    00000140                         : sock.oe66 (.text:SockListen)
                  80342200    00000140                         : sockpcb.oe66 (.text:SockPcbCtlError)
                  80342340    00000140     boot.ae66 : autoinit.oe66 (.text:_auto_init_elf)
                  80342480    00000140     rts6600_elf_mt.lib : _printfi.obj (.text:_pproc_fflags)
                  803425c0    00000140     stk6_ppp_pppoe.ae66 : auth.oe66 (.text:authGetPassword)
                  80342700    00000140     nettool.ae66 : dhcptags.oe66 (.text:dhcpDecodeType)
                  80342840    00000140     rts6600_elf_mt.lib : fseek.obj (.text:fseek)
                  80342980    00000140                        : lowlev.obj (.text:getdevice)
                  80342ac0    00000140     nettool.ae66 : httpsend.oe66 (.text:httpAuthenticationReq)
                  80342c00    00000140     os.ae66 : mem.oe66 (.text:mmCopy)
                  80342d40    00000140     stk6_ppp_pppoe.ae66 : nimuppp.oe66 (.text:pppAddClient)
                  80342e80    00000140                         : socket.oe66 (.text:recv)
                  80342fc0    00000140                         : socket.oe66 (.text:send)
                  80343100    00000140     sysbios.ae66 : BIOS.obj (.text:ti_sysbios_family_c64p_Exception_Module_startup__F)
                  80343240    00000140                  : BIOS.obj (.text:ti_sysbios_family_c64p_Hwi_Module_startup__F)
                  80343380    00000140                  : BIOS.obj (.text:ti_sysbios_family_c66_Cache_Module_startup__F)
                  803434c0    00000140                  : BIOS.obj (.text:ti_sysbios_knl_Semaphore_Instance_init__F)
                  80343600    00000140                  : BIOS.obj (.text:ti_sysbios_knl_Swi_post__E)
                  80343740    00000140                  : BIOS.obj (.text:ti_sysbios_knl_Task_Module_startup__F)
                  80343880    00000140                  : BIOS.obj (.text:ti_sysbios_knl_Task_blockI__E)
                  803439c0    00000140     ti.targets.rts6000.ae66 : Text.oe66 (.text:xdc_runtime_Text_putLab__F)
                  80343b00    00000120     stk6_ppp_pppoe.ae66 : bind6.oe66 (.text:Bind6LifetimeMgmt)
                  80343c20    00000120                         : bind.oe66 (.text:BindFree)
                  80343d40    00000120     nettool.ae66 : config.oe66 (.text:CfgFree)
                  80343e60    00000120                  : daemon.oe66 (.text:DaemonFree)
                  80343f80    00000120     stk6_ppp_pppoe.ae66 : file.oe66 (.text:FdWaitEvent)
                  803440a0    00000120                         : igmp.oe66 (.text:IGMPLeaveHostGroup)
                  803441c0    00000120                         : ip.oe66 (.text:IPMsg)
                  803442e0    00000120                         : ipin.oe66 (.text:IPRouteIP)
                  80344400    00000120                         : ipv6_frag.oe66 (.text:IPv6CreateFragQ)
                  80344520    00000120                         : ipv6.oe66 (.text:IPv6Init)
                  80344640    00000120                         : icmpv6out.oe66 (.text:IsICMPv6ErrorPkt)
                  80344760    00000120                         : md5.oe66 (.text:MD5Update)
                  80344880    00000120                         : mld.oe66 (.text:MLDJoinGroup)
                  803449a0    00000120     netctrl.ae66 : netctrl.oe66 (.text:NC_SystemOpen)
                  80344ac0    00000120     stk6_ppp_pppoe.ae66 : nimu.oe66 (.text:NIMUAddEthernetHeader)
                  80344be0    00000120     ti.drv.qmss.ae66 : qmss_acc.oe66 (.text:Qmss_disableAccumulator)
                  80344d00    00000120     stk6_ppp_pppoe.ae66 : raweth.oe66 (.text:RawEthRxPacket)
                  80344e20    00000120                         : raweth.oe66 (.text:RawEthTxPacket)
                  80344f40    00000120                         : sb.oe66 (.text:SBNew)
                  80345060    00000120     netctrl.ae66 : netsrv.oe66 (.text:SPConfig)
                  80345180    00000120                  : netsrv.oe66 (.text:SPService)
                  803452a0    00000120     stk6_ppp_pppoe.ae66 : sock6.oe66 (.text:Sock6Disconnect)
                  803453c0    00000120                         : sock6.oe66 (.text:Sock6Shutdown)
                  803454e0    00000120                         : sockpcb.oe66 (.text:SockPcbFindRaw)
                  80345600    00000120                         : sock.oe66 (.text:SockShutdown)
                  80345720    00000120                         : tcp6prot.oe66 (.text:TCP6PrAttach)
                  80345840    00000120                         : tcpprot.oe66 (.text:TcpPrAttach)
                  80345960    00000120     nettool.ae66 : telnetd.oe66 (.text:TelnetOpen)
                  80345a80    00000120     stk6_ppp_pppoe.ae66 : rtable.oe66 (.text:_RtNodeInsert)
                  80345ba0    00000120     rts6600_elf_mt.lib : fclose.obj (.text:_closefile)
                  80345cc0    00000120                        : _printfi.obj (.text:_ltostr)
                  80345de0    00000120     os.ae66 : mem.oe66 (.text:_mmInit)
                  80345f00    00000120     nettool.ae66 : daemon.oe66 (.text:dchild)
                  80346020    00000120     stk6_ppp_pppoe.ae66 : fileuser.oe66 (.text:fdOpenSession)
                  80346140    00000120     nettool.ae66 : http.oe66 (.text:httpOpen)
                  80346260    00000120     stk6_ppp_pppoe.ae66 : lcp.oe66 (.text:lcpOpen)
                  80346380    00000120                         : lcp.oe66 (.text:lcpReject)
                  803464a0    00000120                         : socket.oe66 (.text:socket)
                  803465c0    00000120     sysbios.ae66 : BIOS.obj (.text:ti_sysbios_BIOS_rtsUnlock__I)
                  803466e0    00000120                  : BIOS.obj (.text:ti_sysbios_knl_Clock_startI__E)
                  80346800    00000120     ti.targets.rts6000.ae66 : LoggerBuf.oe66 (.text:xdc_runtime_LoggerBuf_setFilterLevel__F)
                  80346920    00000120                             : Text.oe66 (.text:xdc_runtime_Text_putMod__F)
                  80346a40    00000100     nettool.ae66 : config.oe66 (.text:CfgNew)
                  80346b40    00000100                  : config.oe66 (.text:CfgSetExecuteOrder)
                  80346c40    00000100     os.ae66 : ossys.oe66 (.text:DbgPrintf)
                  80346d40    00000100     stk6_ppp_pppoe.ae66 : igmp.oe66 (.text:IGMPTimer)
                  80346e40    00000100                         : ipv6.oe66 (.text:IPv6GetSubnetMaskFromBits)
                  80346f40    00000100                         : ipv6_frag.oe66 (.text:IPv6ReasmTimeout)
                  80347040    00000100                         : rtc.oe66 (.text:RTCMsg)
                  80347140    00000100                         : rawethsock.oe66 (.text:RawEthSockCheck)
                  80347240    00000100                         : route.oe66 (.text:RtRedirect)
                  80347340    00000100                         : sockint.oe66 (.text:SockValidateRoute)
                  80347440    00000100     nettool.ae66 : dhcpsm.oe66 (.text:StateSelecting)
                  80347540    00000100     stk6_ppp_pppoe.ae66 : tcp6prot.oe66 (.text:TCP6PrInherit)
                  80347640    00000100                         : tcp6time.oe66 (.text:TCP6XmitTimer)
                  80347740    00000100                         : tcpprot.oe66 (.text:TcpPrInherit)
                  80347840    00000100                         : tcptime.oe66 (.text:TcpXmitTimer)
                  80347940    00000100                         : rtable.oe66 (.text:_RtNodeRemove)
                  80347a40    00000100     rts6600_elf_mt.lib : _io_perm.obj (.text:_wrt_ok)
                  80347b40    00000100     stk6_ppp_pppoe.ae66 : file.oe66 (.text:fdint_unlockfd)
                  80347c40    00000100                         : socket.oe66 (.text:listen)
                  80347d40    00000100     os.ae66 : mem.oe66 (.text:mmFree)
                  80347e40    00000100     sysbios.ae66 : BIOS.obj (.text:ti_sysbios_family_c64p_EventCombiner_dispatch__F)
                  80347f40    00000100                  : BIOS.obj (.text:ti_sysbios_knl_Swi_restoreHwi__E)
                  80348040    00000100     Disparity_pe66.oe66 (.text:ti_sysbios_knl_Task_Object__create__S)
                  80348140    00000100     sysbios.ae66 : BIOS.obj (.text:ti_sysbios_timers_timer64_Timer_initDevice__I)
                  80348240    00000100     stk6_ppp_pppoe.ae66 : lliin.oe66 (.text:updateRtTable)
                  80348340    00000100     ti.targets.rts6000.ae66 : Core-mem.oe66 (.text:xdc_runtime_Core_deleteObject__I)
                  80348440    00000100                             : LoggerBuf.oe66 (.text:xdc_runtime_LoggerBuf_getFilterLevel__F)
                  80348540    00000100                             : Startup.oe66 (.text:xdc_runtime_Startup_exec__F)
                  80348640    00000100                             : Text.oe66 (.text:xdc_runtime_Text_visitRope2__I)
                  80348740    000000e0     stk6_ppp_pppoe.ae66 : bind6.oe66 (.text:Bind6GetLinkLocalAddress)
                  80348820    000000e0     nettool.ae66 : config.oe66 (.text:CfgGetEntryCnt)
                  80348900    000000e0                  : dhcpmain.oe66 (.text:DHCPClose)
                  803489e0    000000e0     rts6600_elf_mt.lib : trgdrv.obj (.text:HOSTlseek)
                  80348ac0    000000e0                        : trgdrv.obj (.text:HOSTopen)
                  80348ba0    000000e0     stk6_ppp_pppoe.ae66 : icmpv6in.oe66 (.text:ICMPv6SocketErrorInterface)
                  80348c80    000000e0                         : igmp.oe66 (.text:IGMPLeave)
                  80348d60    000000e0                         : ipv6_frag.oe66 (.text:IPv6FindFragQ)
                  80348e40    000000e0                         : ipv6.oe66 (.text:IPv6Layer4ComputeChecksum)
                  80348f20    000000e0                         : lli6.oe66 (.text:LLI6Msg)
                  80349000    000000e0                         : lli6.oe66 (.text:LLI6Update)
                  803490e0    000000e0                         : mld.oe66 (.text:MLDFindMulticastNode)
                  803491c0    000000e0                         : nimu.oe66 (.text:NIMUAllocateIndex)
                  803492a0    000000e0                         : nimu.oe66 (.text:NIMUAllocateName)
                  80349380    000000e0                         : node.oe66 (.text:NodeDeRef)
                  80349460    000000e0                         : node.oe66 (.text:NodeNew)
                  80349540    000000e0                         : node.oe66 (.text:NodeTreeNew)
                  80349620    000000e0                         : pbm.oe66 (.text:PBMQ_enq)
                  80349700    000000e0                         : pbm.oe66 (.text:PBM_copy)
                  803497e0    000000e0                         : rawethsock.oe66 (.text:RawEthSockNotify)
                  803498c0    000000e0                         : rawethsock_pcb.oe66 (.text:RawEthSockPcbAttach)
                  803499a0    000000e0                         : rawethsock.oe66 (.text:RawEthSockSend)
                  80349a80    000000e0                         : route6.oe66 (.text:Route6Msg)
                  80349b60    000000e0                         : route.oe66 (.text:RtDeRef)
                  80349c40    000000e0                         : route.oe66 (.text:RtRemove)
                  80349d20    000000e0                         : sb.oe66 (.text:SBSetMax)
                  80349e00    000000e0                         : sock6int.oe66 (.text:Sock6SpawnAbort)
                  80349ee0    000000e0                         : sock6int.oe66 (.text:Sock6ValidateRoute)
                  80349fc0    000000e0                         : sock.oe66 (.text:SockDisconnect)
                  8034a0a0    000000e0                         : sockint.oe66 (.text:SockSpawnAbort)
                  8034a180    000000e0                         : tcp6prot.oe66 (.text:TCP6PrDetach)
                  8034a260    000000e0                         : tcp6prot.oe66 (.text:TCP6PrDisconnect)
                  8034a340    000000e0                         : tcp6prot.oe66 (.text:TCP6ValidateMetrics)
                  8034a420    000000e0                         : tcpprot.oe66 (.text:TcpPrDetach)
                  8034a500    000000e0                         : tcpprot.oe66 (.text:TcpPrDisconnect)
                  8034a5e0    000000e0                         : tcpprot.oe66 (.text:TcpValidateMetrics)
                  8034a6c0    000000e0                         : timer.oe66 (.text:TimerListInsert)
                  8034a7a0    000000e0                         : udp.oe66 (.text:UdpChecksum)
                  8034a880    000000e0                         : vlan.oe66 (.text:VLANDeinit)
                  8034a960    000000e0                         : vlan.oe66 (.text:VLANReceivePacket)
                  8034aa40    000000e0     nettool.ae66 : config.oe66 (.text:_CfgEntryScan)
                  8034ab20    000000e0     stk6_ppp_pppoe.ae66 : lli.oe66 (.text:_LLIExpListInsert)
                  8034ac00    000000e0                         : rtable.oe66 (.text:_RtExpListInsert)
                  8034ace0    000000e0     rts6600_elf_mt.lib : _printfi.obj (.text:_div)
                  8034adc0    000000e0                        : atoi.obj (.text:atoi)
                  8034aea0    000000e0                        : lowlev.obj (.text:close)
                  8034af80    000000e0                        : copy_zero_init.obj (.text:decompress:ZI:__TI_zero_init)
                  8034b060    000000e0     os.ae66 : efs.oe66 (.text:efs_internal_remove)
                  8034b140    000000e0     rts6600_elf_mt.lib : exit.obj (.text:exit)
                  8034b220    000000e0     stk6_ppp_pppoe.ae66 : file.oe66 (.text:fdint_lockfd)
                  8034b300    000000e0     rts6600_elf_mt.lib : fflush.obj (.text:fflush)
                  8034b3e0    000000e0     nettool.ae66 : httpclie.oe66 (.text:httpGetMimeBits)
                  8034b4c0    000000e0     os.ae66 : task.oe66 (.text:llExit)
                  8034b5a0    000000e0     rts6600_elf_mt.lib : ltoa.obj (.text:ltoa)
                  8034b680    000000e0                        : memset.obj (.text:memset)
                  8034b760    000000e0     os.ae66 : mem.oe66 (.text:mmBulkAlloc)
                  8034b840    000000e0     stk6_ppp_pppoe.ae66 : nimuppp.oe66 (.text:pppFree)
                  8034b920    000000e0     rts6600_elf_mt.lib : printf.obj (.text:printf)
                  8034ba00    000000e0     sysbios.ae66 : BIOS.obj (.text:ti_sysbios_knl_Clock_start__E)
                  8034bae0    000000e0     ti.targets.rts6000.ae66 : Error.oe66 (.text:xdc_runtime_Error_print__F)
                  8034bbc0    000000e0     Disparity_pe66.oe66 (.text:xdc_runtime_LoggerBuf_Object__create__S)
                  8034bca0    000000e0     ti.targets.rts6000.ae66 : Memory.oe66 (.text:xdc_runtime_Memory_alloc__F)
                  8034bd80    000000c0     rts6600_elf_mt.lib : trgdrv.obj (.text:HOSTread)
                  8034be40    000000c0                        : trgdrv.obj (.text:HOSTwrite)
                  8034bf00    000000c0     stk6_ppp_pppoe.ae66 : icmpv6in.oe66 (.text:ICMPv6RecvDstUnreachable)
                  8034bfc0    000000c0                         : lli.oe66 (.text:LLIGetValidTime)
                  8034c080    000000c0                         : lli.oe66 (.text:LLIMsg)
                  8034c140    000000c0                         : mld.oe66 (.text:MLDCreateMulticastNode)
                  8034c200    000000c0                         : mld.oe66 (.text:MLDLeaveGroup)
                  8034c2c0    000000c0                         : nimu.oe66 (.text:NIMUFindByName)
                  8034c380    000000c0     netctrl.ae66 : netsrv.oe66 (.text:NS_BootTask)
                  8034c440    000000c0     stk6_ppp_pppoe.ae66 : node.oe66 (.text:NodeUpdatePL)
                  8034c500    000000c0     nettool.ae66 : ipaddr.oe66 (.text:NtIfIdx2Ip)
                  8034c5c0    000000c0     ti.drv.qmss.ae66 : qmss_drv.oe66 (.text:Qmss_setEoiVector)
                  8034c680    000000c0     stk6_ppp_pppoe.ae66 : route6.oe66 (.text:Rt6FindDefaultRouter)
                  8034c740    000000c0                         : rtable.oe66 (.text:RtWalkBegin)
                  8034c800    000000c0                         : sb6.oe66 (.text:SB6Flush)
                  8034c8c0    000000c0                         : sb6.oe66 (.text:SB6SetMax)
                  8034c980    000000c0                         : sb.oe66 (.text:SBFlush)
                  8034ca40    000000c0                         : sock6.oe66 (.text:Sock6IntAbort)
                  8034cb00    000000c0                         : sock6pcb.oe66 (.text:Sock6PcbResolveChain)
                  8034cbc0    000000c0                         : sock6pcb.oe66 (.text:Sock6PcbRtChange)
                  8034cc80    000000c0                         : sock.oe66 (.text:SockIntAbort)
                  8034cd40    000000c0                         : sockpcb.oe66 (.text:SockPcbRtChange)
                  8034ce00    000000c0                         : tcp6prot.oe66 (.text:TCP6Close)
                  8034cec0    000000c0                         : tcp6time.oe66 (.text:TCP6TimeoutSackRexmt)
                  8034cf80    000000c0     os.ae66 : task.oe66 (.text:TaskGetEnv)
                  8034d040    000000c0     stk6_ppp_pppoe.ae66 : tcp.oe66 (.text:TcpChecksum)
                  8034d100    000000c0                         : tcpprot.oe66 (.text:TcpClose)
                  8034d1c0    000000c0                         : tcptime.oe66 (.text:TcpTimeoutSackRexmt)
                  8034d280    000000c0                         : bind6.oe66 (.text:_Bind6FindByHostInList)
                  8034d340    000000c0                         : bind6.oe66 (.text:_Bind6FindByNetInList)
                  8034d400    000000c0     rts6600_elf_mt.lib : dtor_list.obj (.text:__cxa_finalize)
                  8034d4c0    000000c0                        : divu.obj (.text:__divu)
                  8034d580    000000c0                        : remi.obj (.text:__remi)
                  8034d640    000000c0                        : fflush.obj (.text:_doflush)
                  8034d700    000000c0     ti.drv.cppi.ae66 : cppi_listlib.oe66 (.text:cppi_list_remove_node)
                  8034d7c0    000000c0     nettool.ae66 : dhcptags.oe66 (.text:dhcpOptionsClear)
                  8034d880    000000c0     os.ae66 : efs.oe66 (.text:efs_fopen)
                  8034d940    000000c0     nettool.ae66 : httpsend.oe66 (.text:httpSendFullResponse)
                  8034da00    000000c0     os.ae66 : mem.oe66 (.text:mmZeroInit)
                  8034dac0    000000c0     rts6600_elf_mt.lib : _mutex.obj (.text:mutex_init)
                  8034db80    000000c0     stk6_ppp_pppoe.ae66 : nimuppp.oe66 (.text:pppAddIP)
                  8034dc40    000000c0     rts6600_elf_mt.lib : _pthread.obj (.text:pthread_mutex_lock)
                  8034dd00    000000c0                        : _pthread.obj (.text:pthread_mutex_unlock)
                  8034ddc0    000000c0                        : _pthread.obj (.text:pthread_once)
                  8034de80    000000c0     Disparity_pe66.oe66 (.text:ti_ndk_config_Global_stackThread)
                  8034df40    000000c0     sysbios.ae66 : BIOS.obj (.text:ti_sysbios_BIOS_errorRaiseHook__I)
                  8034e000    000000c0                  : BIOS.obj (.text:ti_sysbios_heaps_HeapMem_getStats__E)
                  8034e0c0    000000c0                  : BIOS.obj (.text:ti_sysbios_knl_Clock_logTick__E)
                  8034e180    000000c0                  : BIOS.obj (.text:ti_sysbios_knl_Task_allBlockedFunction__I)
                  8034e240    000000c0                  : BIOS.obj (.text:ti_sysbios_timers_timer64_Timer_startup__E)
                  8034e300    000000c0     ti.targets.rts6000.ae66 : LoggerBuf.oe66 (.text:xdc_runtime_LoggerBuf_Instance_init__F)
                  8034e3c0    000000c0                             : System.oe66 (.text:xdc_runtime_System_formatNum__I)
                  8034e480    000000a0     nettool.ae66 : config.oe66 (.text:CfgEntryDeRef)
                  8034e520    000000a0                  : config.oe66 (.text:CfgEntryGetData)
                  8034e5c0    000000a0                  : config.oe66 (.text:CfgGetImmediate)
                  8034e660    000000a0                  : telnetd.oe66 (.text:CmdWriteBytes)
                  8034e700    000000a0                  : telnetd.oe66 (.text:CmdWriteCmd)
                  8034e7a0    000000a0     ti.drv.cppi.ae66 : cppi_drv.oe66 (.text:Cppi_channelEnable)
                  8034e840    000000a0     stk6_ppp_pppoe.ae66 : file.oe66 (.text:FdSignalEvent)
                  8034e8e0    000000a0     rts6600_elf_mt.lib : trgdrv.obj (.text:HOSTunlink)
                  8034e980    000000a0     stk6_ppp_pppoe.ae66 : ipfrag.oe66 (.text:IPReasmFree)
                  8034ea20    000000a0                         : ipfrag.oe66 (.text:IPReasmTimeout)
                  8034eac0    000000a0                         : ipv6.oe66 (.text:IPv6CompareAddress)
                  8034eb60    000000a0                         : lliin.oe66 (.text:LLIValidateRoute)
                  8034ec00    000000a0                         : md5.oe66 (.text:MD5Final)
                  8034eca0    000000a0                         : nimu.oe66 (.text:NIMUShutdown)
                  8034ed40    000000a0                         : nimu.oe66 (.text:NIMUUnregister)
                  8034ede0    000000a0     nettool.ae66 : ipaddr.oe66 (.text:NtAddNetwork)
                  8034ee80    000000a0     stk6_ppp_pppoe.ae66 : pbm.oe66 (.text:PBM_open)
                  8034ef20    000000a0                         : pipe.oe66 (.text:PipeCheck)
                  8034efc0    000000a0     ti.drv.qmss.ae66 : qmss_drv.oe66 (.text:Qmss_queueClose)
                  8034f060    000000a0                      : qmss_drv.oe66 (.text:Qmss_startCfg)
                  8034f100    000000a0     stk6_ppp_pppoe.ae66 : rtable.oe66 (.text:RouteMsg)
                  8034f1a0    000000a0                         : route.oe66 (.text:RtNew)
                  8034f240    000000a0                         : sb6.oe66 (.text:SB6Free)
                  8034f2e0    000000a0                         : sb.oe66 (.text:SBFree)
                  8034f380    000000a0     os.ae66 : semaphore.oe66 (.text:SemCreate)
                  8034f420    000000a0             : semaphore.oe66 (.text:SemCreateBinary)
                  8034f4c0    000000a0     stk6_ppp_pppoe.ae66 : sock6pcb.oe66 (.text:Sock6CleanPcb)
                  8034f560    000000a0                         : sock6.oe66 (.text:Sock6GetName)
                  8034f600    000000a0                         : sock.oe66 (.text:SockBind)
                  8034f6a0    000000a0                         : sockpcb.oe66 (.text:SockCleanPcb)
                  8034f740    000000a0                         : sockpcb.oe66 (.text:SockPcbResolveChain)
                  8034f7e0    000000a0                         : tcp6prot.oe66 (.text:TCP6Drop)
                  8034f880    000000a0                         : tcp6prot.oe66 (.text:TCP6PrCtlError)
                  8034f920    000000a0                         : tcp6prot.oe66 (.text:TCP6PrSend)
                  8034f9c0    000000a0                         : tcp6prot.oe66 (.text:TCP6PrSendOOB)
                  8034fa60    000000a0     os.ae66 : task.oe66 (.text:TaskCreate)
                  8034fb00    000000a0     stk6_ppp_pppoe.ae66 : tcpprot.oe66 (.text:TcpDrop)
                  8034fba0    000000a0                         : tcpprot.oe66 (.text:TcpPrCtlError)
                  8034fc40    000000a0                         : tcpprot.oe66 (.text:TcpPrSend)
                  8034fce0    000000a0                         : tcpprot.oe66 (.text:TcpPrSendOOB)
                  8034fd80    000000a0                         : timer.oe66 (.text:TimerNew)
                  8034fe20    000000a0     nettool.ae66 : config.oe66 (.text:_CfgRelease)
                  8034fec0    000000a0     stk6_ppp_pppoe.ae66 : lli.oe66 (.text:_LLITimeoutFlush)
                  8034ff60    000000a0     rts6600_elf_mt.lib : dtor_list.obj (.text:_Z11__TI_atexitPFYvPvES_S_)
                  80350000    000000a0                        : remu.obj (.text:__remu)
                  803500a0    000000a0     boot.ae66 : boot.oe66 (.text:_c_int00)
                  80350140    000000a0     rts6600_elf_mt.lib : fopen.obj (.text:_cleanup)
                  803501e0    000000a0                        : _printfi.obj (.text:_ecpy)
                  80350280    000000a0                        : _printfi.obj (.text:_fcpy)
                  80350320    000000a0                        : _printfi.obj (.text:_pconv_f)
                  803503c0    000000a0     stk6_ppp_pppoe.ae66 : auth.oe66 (.text:authStart)
                  80350460    000000a0     ti.drv.cppi.ae66 : cppi_heap.oe66 (.text:cppi_internal_heap_malloc)
                  80350500    000000a0                      : cppi_listlib.oe66 (.text:cppi_list_cat)
                  803505a0    000000a0     nettool.ae66 : dhcpbild.oe66 (.text:dhcpBuildDecline)
                  80350640    000000a0                  : dhcpsm.oe66 (.text:dhcpIPRemove)
                  803506e0    000000a0     os.ae66 : efs.oe66 (.text:efs_filesend)
                  80350780    000000a0     stk6_ppp_pppoe.ae66 : fileuser.oe66 (.text:fdCloseSession)
                  80350820    000000a0     rts6600_elf_mt.lib : lowlev.obj (.text:finddevice)
                  803508c0    000000a0     stk6_ppp_pppoe.ae66 : lcp.oe66 (.text:lcpInit)
                  80350960    000000a0                         : lcp.oe66 (.text:lcpSendTerm)
                  80350a00    000000a0                         : sock6.oe66 (.text:leaveGroup)
                  80350aa0    000000a0     hal_timer_bios.ae66 : lltimer.oe66 (.text:llTimerTick)
                  80350b40    000000a0     rts6600_elf_mt.lib : lowlev.obj (.text:lseek)
                  80350be0    000000a0                        : memcpy64.obj (.text:memcpy)
                  80350c80    000000a0     os.ae66 : mem.oe66 (.text:mmBulkFree)
                  80350d20    000000a0             : mem.oe66 (.text:mmInitPage)
                  80350dc0    000000a0     rts6600_elf_mt.lib : _mutex.obj (.text:mutex_unlock)
                  80350e60    000000a0     ti.drv.pa.ae66 : pa.oe66 (.text:pa_format_fcmd_header)
                  80350f00    000000a0                    : pa.oe66 (.text:pa_pdsp_run)
                  80350fa0    000000a0     os.ae66 : ossys.oe66 (.text:stricmp)
                  80351040    000000a0     rts6600_elf_mt.lib : strstr.obj (.text:strstr)
                  803510e0    000000a0     sysbios.ae66 : BIOS.obj (.text:ti_sysbios_family_c64p_Hwi_eventMap__E)
                  80351180    000000a0                  : BIOS.obj (.text:ti_sysbios_family_c64p_Hwi_getStackInfo__E)
                  80351220    000000a0                  : BIOS.obj (.text:ti_sysbios_heaps_HeapMem_init__I)
                  803512c0    000000a0     Disparity_pe66.oe66 (.text:ti_sysbios_knl_Clock_Object__create__S)
                  80351360    000000a0     sysbios.ae66 : BIOS.obj (.text:ti_sysbios_knl_Idle_run__E)
                  80351400    000000a0                  : BIOS.obj (.text:ti_sysbios_knl_Semaphore_pendTimeout__I)
                  803514a0    000000a0                  : BIOS.obj (.text:ti_sysbios_knl_Task_deleteTerminatedTasksFunc__I)
                  80351540    000000a0                  : BIOS.obj (.text:ti_sysbios_knl_Task_processVitalTaskFlag__I)
                  803515e0    000000a0                  : BIOS.obj (.text:ti_sysbios_timers_timer64_Timer_stop__E)
                  80351680    000000a0     rts6600_elf_mt.lib : lowlev.obj (.text:write)
                  80351720    000000a0     ti.targets.rts6000.ae66 : Assert.oe66 (.text:xdc_runtime_Assert_raise__I)
                  803517c0    000000a0                             : LoggerBuf.oe66 (.text:xdc_runtime_LoggerBuf_Module_startup__F)
                  80351860    000000a0                             : Text.oe66 (.text:xdc_runtime_Text_xprintf__I)
                  80351900    00000080     ti.drv.cppi.ae66 : cppi_drv.oe66 (.text:Cppi_setCpdmaLoopback)
                  80351980    00000080     stk6_ppp_pppoe.ae66 : md5.oe66 (.text:Decode)
                  80351a00    00000080     rts6600_elf_mt.lib : trgdrv.obj (.text:HOSTclose)
                  80351a80    00000080     stk6_ppp_pppoe.ae66 : icmp.oe66 (.text:ICMPChecksum)
                  80351b00    00000080                         : icmpv6in.oe66 (.text:ICMPv6RecvParamProblem)
                  80351b80    00000080                         : icmpv6_ndisc.oe66 (.text:ICMPv6RecvRS)
                  80351c00    00000080                         : icmpv6in.oe66 (.text:ICMPv6RecvTimeExceeded)
                  80351c80    00000080                         : ipv6out.oe66 (.text:IPv6GetRoute)
                  80351d00    00000080                         : lli6.oe66 (.text:LLI6Free)
                  80351d80    00000080                         : lli6.oe66 (.text:LLI6IsRouterStatMachine)
                  80351e00    00000080                         : nimu.oe66 (.text:NIMUInit)
                  80351e80    00000080                         : pbm.oe66 (.text:PBMQ_deq)
                  80351f00    00000080                         : nimuppp.oe66 (.text:PPPSend)
                  80351f80    00000080     ti.drv.pa.ae66 : painit.oe66 (.text:Pa_getBufferReq)
                  80352000    00000080     stk6_ppp_pppoe.ae66 : pipe.oe66 (.text:PipeClose)
                  80352080    00000080     ti.drv.qmss.ae66 : qmss_drv.oe66 (.text:Qmss_getMemRegQueueHandle)
                  80352100    00000080                      : qmss_drv.oe66 (.text:Qmss_queueOpen)
                  80352180    00000080     stk6_ppp_pppoe.ae66 : rawethsock.oe66 (.text:RawEthSockClose)
                  80352200    00000080                         : rawethsock_pcb.oe66 (.text:RawEthSockPcbDetach)
                  80352280    00000080                         : route6.oe66 (.text:Rt6Update)
                  80352300    00000080                         : route.oe66 (.text:RtSetFailure)
                  80352380    00000080                         : route.oe66 (.text:RtSetTimeout)
                  80352400    00000080                         : sock6.oe66 (.text:Sock6Bind)
                  80352480    00000080                         : sock6pcb.oe66 (.text:Sock6PcbCleanup)
                  80352500    00000080                         : sock.oe66 (.text:SockGetName)
                  80352580    00000080                         : sockpcb.oe66 (.text:SockPcbCleanup)
                  80352600    00000080                         : sockpcb.oe66 (.text:SockPcbDetach)
                  80352680    00000080                         : tcp6prot.oe66 (.text:TCP6PrListen)
                  80352700    00000080     os.ae66 : task.oe66 (.text:TaskSetEnv)
                  80352780    00000080     stk6_ppp_pppoe.ae66 : tcpprot.oe66 (.text:TcpPrListen)
                  80352800    00000080                         : timer.oe66 (.text:TimerHSTick)
                  80352880    00000080                         : timer.oe66 (.text:TimerListRemove)
                  80352900    00000080     nettool.ae66 : config.oe66 (.text:_CfgAcquire)
                  80352980    00000080     stk6_ppp_pppoe.ae66 : lli.oe66 (.text:_LLIExpListRemove)
                  80352a00    00000080                         : rtc.oe66 (.text:_RTCSendRtAdv)
                  80352a80    00000080                         : rtable.oe66 (.text:_RtExpListRemove)
                  80352b00    00000080     rts6600_elf_mt.lib : _mutex.obj (.text:__TI_resource_lock)
                  80352b80    00000080                        : llshift.obj (.text:__c6xabi_llshl)
                  80352c00    00000080     sysbios.ae66 : c62_TaskSupport_asm.obj (.text:_ti_sysbios_family_c62_TaskSupport_swap__E)
                  80352c80    00000080     ti.drv.cppi.ae66 : cppi_heap.oe66 (.text:cppi_internal_heap_cache_begin)
                  80352d00    00000080                      : cppi_listlib.oe66 (.text:cppi_list_remove)
                  80352d80    00000080     nettool.ae66 : dhcpsock.oe66 (.text:dhcpSocketClose)
                  80352e00    00000080     os.ae66 : efs.oe66 (.text:efs_fclose)
                  80352e80    00000080             : efs.oe66 (.text:efs_findfile)
                  80352f00    00000080     stk6_ppp_pppoe.ae66 : file.oe66 (.text:fdint_waitevent)
                  80352f80    00000080     nettool.ae66 : httpsend.oe66 (.text:httpSendEntityLength)
                  80353000    00000080                  : httpsend.oe66 (.text:httpSendErrorResponse)
                  80353080    00000080     hal_timer_bios.ae66 : lltimer.oe66 (.text:llTimerGetTime)
                  80353100    00000080     Disparity_pe66.oe66 (.text:malloc)
                  80353180    00000080     rts6600_elf_mt.lib : _mutex.obj (.text:mutex_lock)
                  80353200    00000080     ti.drv.pa.ae66 : pa.oe66 (.text:pa_uint8_match)
                  80353280    00000080     rts6600_elf_mt.lib : _pthread.obj (.text:pthread_mutex_init)
                  80353300    00000080                        : trgmsg.obj (.text:readmsg)
                  80353380    00000080     nettool.ae66 : httpsend.oe66 (.text:strcat)
                  80353400    00000080     ti.drv.pa.ae66 : pa.oe66 (.text:swizFcmd)
                  80353480    00000080     ti.platform.evm6678l.ae66 : evm66x_i2c.obj (.text)
                  80353500    00000080     Disparity_pe66.oe66 (.text:ti_sysbios_BIOS_exitFunc__I)
                  80353580    00000080     sysbios.ae66 : BIOS.obj (.text:ti_sysbios_BIOS_registerRTSLock__I)
                  80353600    00000080     Disparity_pe66.oe66 (.text:ti_sysbios_gates_GateHwi_Object__create__S)
                  80353680    00000080     Disparity_pe66.oe66 (.text:ti_sysbios_gates_GateMutex_Object__create__S)
                  80353700    00000080     sysbios.ae66 : BIOS.obj (.text:ti_sysbios_hal_Hwi_checkStack:ti_sysbios_hal_Hwi_checkStack)
                  80353780    00000080                  : BIOS.obj (.text:ti_sysbios_hal_Hwi_initStack:ti_sysbios_hal_Hwi_initStack)
                  80353800    00000080     Disparity_pe66.oe66 (.text:ti_sysbios_heaps_HeapMem_Object__create__S)
                  80353880    00000080     sysbios.ae66 : BIOS.obj (.text:ti_sysbios_knl_Clock_Module_startup__F)
                  80353900    00000080     Disparity_pe66.oe66 (.text:ti_sysbios_knl_Clock_doTick__I)
                  80353980    00000080     sysbios.ae66 : BIOS.obj (.text:ti_sysbios_knl_Clock_getTicks__E)
                  80353a00    00000080     Disparity_pe66.oe66 (.text:ti_sysbios_knl_Queue_Object__create__S)
                  80353a80    00000080     Disparity_pe66.oe66 (.text:ti_sysbios_knl_Semaphore_Object__create__S)
                  80353b00    00000080     sysbios.ae66 : BIOS.obj (.text:ti_sysbios_knl_Swi_startup__E)
                  80353b80    00000080                  : BIOS.obj (.text:ti_sysbios_knl_Task_restore__E)
                  80353c00    00000080                  : BIOS.obj (.text:ti_sysbios_timers_timer64_Timer_getCount__E)
                  80353c80    00000080                  : BIOS.obj (.text:ti_sysbios_timers_timer64_Timer_getPeriod__E)
                  80353d00    00000080     rts6600_elf_mt.lib : trgmsg.obj (.text:writemsg)
                  80353d80    00000080     ti.targets.rts6000.ae66 : Core-label.oe66 (.text:xdc_runtime_Core_assignLabel__I)
                  80353e00    00000080                             : Core-params.oe66 (.text:xdc_runtime_Core_assignParams__I)
                  80353e80    00000080                             : LoggerBuf.oe66 (.text:xdc_runtime_LoggerBuf_filterOutEvent__I)
                  80353f00    00000080                             : System.oe66 (.text:xdc_runtime_System_atexit__F)
                  80353f80    00000080                             : System.oe66 (.text:xdc_runtime_System_putchar__I)
                  80354000    00000080                             : System.oe66 (.text:xdc_runtime_System_rtsExit__I)
                  80354080    00000080                             : Text.oe66 (.text:xdc_runtime_Text_printVisFxn__I)
                  80354100    00000060     stk6_ppp_pppoe.ae66 : bind6.oe66 (.text:Bind6FindByIF)
                  80354160    00000060                         : bind6.oe66 (.text:Bind6IF2IPHost)
                  803541c0    00000060                         : bind.oe66 (.text:BindFindByHost)
                  80354220    00000060                         : bind.oe66 (.text:BindFindByIF)
                  80354280    00000060                         : bind.oe66 (.text:BindFindByNet)
                  803542e0    00000060                         : bind.oe66 (.text:BindGetIFByDBCast)
                  80354340    00000060                         : bind.oe66 (.text:BindIF2IPHost)
                  803543a0    00000060     nettool.ae66 : config.oe66 (.text:CfgEntryInfo)
                  80354400    00000060                  : config.oe66 (.text:CfgSetService)
                  80354460    00000060     stk6_ppp_pppoe.ae66 : md5.oe66 (.text:Encode)
                  803544c0    00000060                         : exec.oe66 (.text:ExecBroadcast)
                  80354520    00000060                         : igmp.oe66 (.text:IGMPTestGroup)
                  80354580    00000060                         : ip.oe66 (.text:IPChecksum)
                  803545e0    00000060                         : lli.oe66 (.text:LLIFree)
                  80354640    00000060     netctrl.ae66 : netctrl.oe66 (.text:NC_SystemClose)
                  803546a0    00000060     stk6_ppp_pppoe.ae66 : nimu.oe66 (.text:NIMUAddHeader)
                  80354700    00000060                         : nimu.oe66 (.text:NIMUCreatePacket)
                  80354760    00000060                         : nimu.oe66 (.text:NIMUFindByIndex)
                  803547c0    00000060                         : nimu.oe66 (.text:NIMUPacketService)
                  80354820    00000060                         : nimu.oe66 (.text:NIMUPacketServiceCheck)
                  80354880    00000060                         : nimu.oe66 (.text:NIMUSendPacket)
                  803548e0    00000060     netctrl.ae66 : netsrv.oe66 (.text:NS_PreBoot)
                  80354940    00000060     stk6_ppp_pppoe.ae66 : node.oe66 (.text:NodeGetRt)
                  803549a0    00000060                         : nimuppp.oe66 (.text:PPPStart)
                  80354a00    00000060                         : rtc.oe66 (.text:RTCAddHook)
                  80354a60    00000060                         : rtc.oe66 (.text:RTCRemoveHook)
                  80354ac0    00000060                         : rawethsock_pcb.oe66 (.text:RawEthSockPcbCleanup)
                  80354b20    00000060                         : rawethsock_pcb.oe66 (.text:RawEthSockPcbFind)
                  80354b80    00000060                         : route6.oe66 (.text:Rt6GetNetworkAddr)
                  80354be0    00000060                         : rtable.oe66 (.text:RtWalkEnd)
                  80354c40    00000060     netctrl.ae66 : netsrv.oe66 (.text:ServiceCallback)
                  80354ca0    00000060     stk6_ppp_pppoe.ae66 : sock6pcb.oe66 (.text:Sock6PcbDetach)
                  80354d00    00000060                         : sock6prot.oe66 (.text:Sock6PrCtlError)
                  80354d60    00000060                         : sock6prot.oe66 (.text:Sock6PrDetach)
                  80354dc0    00000060                         : sockprot.oe66 (.text:SockPrCtlError)
                  80354e20    00000060                         : sockprot.oe66 (.text:SockPrDetach)
                  80354e80    00000060                         : tcp6prot.oe66 (.text:TCP6PrConnect)
                  80354ee0    00000060                         : tcp6time.oe66 (.text:TCP6SetPersist)
                  80354f40    00000060                         : tcp6time.oe66 (.text:TCP6TimeoutPersist)
                  80354fa0    00000060                         : tcpprot.oe66 (.text:TcpPrConnect)
                  80355000    00000060                         : tcptime.oe66 (.text:TcpSetPersist)
                  80355060    00000060                         : tcptime.oe66 (.text:TcpTimeoutPersist)
                  803550c0    00000060                         : vlan.oe66 (.text:VLANFindNode)
                  80355120    00000060                         : vlan.oe66 (.text:VLANFindSourceInterface)
                  80355180    00000060                         : vlan.oe66 (.text:VLANInit)
                  803551e0    00000060     nettool.ae66 : config.oe66 (.text:_CfgEntryProcess)
                  80355240    00000060     rts6600_elf_mt.lib : frcmpyd_div.obj (.text:__c6xabi_frcmpyd_div)
                  803552a0    00000060                        : llshift.obj (.text:__c6xabi_llshru)
                  80355300    00000060                        : imath64.obj (.text:_subcull)
                  80355360    00000060     ti.drv.cppi.ae66 : cppi_listlib.oe66 (.text:cppi_list_add)
                  803553c0    00000060                      : cppi_listlib.oe66 (.text:cppi_list_cache_invalidate)
                  80355420    00000060     rts6600_elf_mt.lib : _mutex.obj (.text:create_resource_mutexes)
                  80355480    00000060                        : _mutex.obj (.text:destroy_resource_mutexes)
                  803554e0    00000060     nettool.ae66 : dhcpbild.oe66 (.text:dhcpBuildDiscover)
                  80355540    00000060                  : dhcpsock.oe66 (.text:dhcpPacketReceive)
                  803555a0    00000060                  : dhcpsock.oe66 (.text:dhcpPacketSend)
                  80355600    00000060     stk6_ppp_pppoe.ae66 : fileuser.oe66 (.text:fdSelectAbort)
                  80355660    00000060                         : file.oe66 (.text:fdint_clearevent)
                  803556c0    00000060                         : file.oe66 (.text:fdint_getfdt)
                  80355720    00000060                         : file.oe66 (.text:fdint_setevent)
                  80355780    00000060                         : fileuser.oe66 (.text:fdsetTestEntry)
                  803557e0    00000060     nettool.ae66 : httpsend.oe66 (.text:httpSendClientStr)
                  80355840    00000060     stk6_ppp_pppoe.ae66 : ipcp.oe66 (.text:ipcpInit)
                  803558a0    00000060                         : ipcp.oe66 (.text:ipcpStart)
                  80355900    00000060                         : lcp.oe66 (.text:lcpClose)
                  80355960    00000060                         : listlib.oe66 (.text:list_cat)
                  803559c0    00000060                         : listlib.oe66 (.text:list_remove_node)
                  80355a20    00000060     rts6600_elf_mt.lib : memccpy.obj (.text:memccpy)
                  80355a80    00000060     os.ae66 : mem.oe66 (.text:mmUnInitPage)
                  80355ae0    00000060     ti.drv.pa.ae66 : painit.oe66 (.text:pa_init_global_cfg)
                  80355b40    00000060                    : pa.oe66 (.text:pa_uint8_zero)
                  80355ba0    00000060     stk6_ppp_pppoe.ae66 : nimupppoe.oe66 (.text:pppoeInput)
                  80355c00    00000060     rts6600_elf_mt.lib : _pthread.obj (.text:pthread_mutex_destroy)
                  80355c60    00000060     sysbios.ae66 : BIOS.obj (.text:ti_sysbios_BIOS_rtsLock__I)
                  80355cc0    00000060                  : BIOS.obj (.text:ti_sysbios_family_c62_TaskSupport_start__E)
                  80355d20    00000060                  : BIOS.obj (.text:ti_sysbios_family_c64p_EventCombiner_Module_startup__F)
                  80355d80    00000060                  : BIOS.obj (.text:ti_sysbios_family_c64p_EventCombiner_dispatchPlug__F)
                  80355de0    00000060                  : BIOS.obj (.text:ti_sysbios_family_c64p_EventCombiner_unused__F)
                  80355e40    00000060                  : BIOS.obj (.text:ti_sysbios_family_c64p_Hwi_restoreInterrupt__E)
                  80355ea0    00000060                  : BIOS.obj (.text:ti_sysbios_gates_GateMutex_Instance_init__F)
                  80355f00    00000060     Disparity_pe66.oe66 (.text:ti_sysbios_gates_GateMutex_Object__delete__S)
                  80355f60    00000060     Disparity_pe66.oe66 (.text:ti_sysbios_knl_Semaphore_Object__delete__S)
                  80355fc0    00000060     sysbios.ae66 : BIOS.obj (.text:ti_sysbios_knl_Swi_Module_startup__F)
                  80356020    00000060     Disparity_pe66.oe66 (.text:ti_sysbios_knl_Task_Object__delete__S)
                  80356080    00000060     sysbios.ae66 : BIOS.obj (.text:ti_sysbios_knl_Task_enter__I)
                  803560e0    00000060                  : BIOS.obj (.text:ti_sysbios_knl_Task_sleepTimeout__I)
                  80356140    00000060     rts6600_elf_mt.lib : lowlev.obj (.text:unlink)
                  803561a0    00000060                        : vsprintf.obj (.text:vsprintf)
                  80356200    00000060     Disparity_pe66.oe66 (.text:xdc_runtime_LoggerBuf_Object__delete__S)
                  80356260    00000060     ti.targets.rts6000.ae66 : Memory.oe66 (.text:xdc_runtime_Memory_calloc__F)
                  803562c0    00000060                             : SysStd.oe66 (.text:xdc_runtime_SysStd_abort__F)
                  80356320    00000060                             : System.oe66 (.text:xdc_runtime_System_avprintf__F)
                  80356380    00000060                             : System.oe66 (.text:xdc_runtime_System_vprintf__F)
                  803563e0    00000060                             : Text.oe66 (.text:xdc_runtime_Text_cordText__F)
                  80356440    00000040     stk6_ppp_pppoe.ae66 : bind6.oe66 (.text:Bind6FindByHost)
                  80356480    00000040                         : bind6.oe66 (.text:Bind6FindByNet)
                  803564c0    00000040                         : bind.oe66 (.text:BindGetIP)
                  80356500    00000040                         : exec.oe66 (.text:ExecClose)
                  80356540    00000040                         : exec.oe66 (.text:ExecTimer)
                  80356580    00000040                         : ipv6.oe66 (.text:IPv6IsLinkLocal)
                  803565c0    00000040                         : ipv6.oe66 (.text:IPv6IsMulticast)
                  80356600    00000040                         : lli6.oe66 (.text:LLI6IsValid)
                  80356640    00000040                         : md5.oe66 (.text:MD5Init)
                  80356680    00000040                         : mld.oe66 (.text:MLDTestGroup)
                  803566c0    00000040     netctrl.ae66 : netctrl.oe66 (.text:NC_BootComplete)
                  80356700    00000040     os.ae66 : task.oe66 (.text:NDK_hookCreate)
                  80356740    00000040             : ossys.oe66 (.text:NDK_sprintf)
                  80356780    00000040     nettool.ae66 : ipaddr.oe66 (.text:NtRemoveNetwork)
                  803567c0    00000040     ti.drv.qmss.ae66 : qmss_drv.oe66 (.text:Qmss_ackInterrupt)
                  80356800    00000040                      : qmss_drv.oe66 (.text:Qmss_getMemRegDescSize)
                  80356840    00000040     stk6_ppp_pppoe.ae66 : rawethsock_pcb.oe66 (.text:RawEthSockPcbInit)
                  80356880    00000040     nettool.ae66 : ipaddr.oe66 (.text:RouteHook)
                  803568c0    00000040     stk6_ppp_pppoe.ae66 : route6.oe66 (.text:Rt6IsDefaultRoute)
                  80356900    00000040                         : sock6pcb.oe66 (.text:Sock6PcbAttach)
                  80356940    00000040                         : sock6int.oe66 (.text:Sock6SetOOBMark)
                  80356980    00000040                         : sockpcb.oe66 (.text:SockPcbAttach)
                  803569c0    00000040                         : sockint.oe66 (.text:SockSetOOBMark)
                  80356a00    00000040                         : tcp6.oe66 (.text:TCP6TimeoutRemove)
                  80356a40    00000040                         : tcp6time.oe66 (.text:TCP6TimeoutWait2)
                  80356a80    00000040     os.ae66 : task.oe66 (.text:TaskDestroy)
                  80356ac0    00000040     stk6_ppp_pppoe.ae66 : tcp.oe66 (.text:TcpTimeoutRemove)
                  80356b00    00000040                         : tcptime.oe66 (.text:TcpTimeoutWait2)
                  80356b40    00000040     rts6600_elf_mt.lib : _data_synch.obj (.text:__TI_data_synch_WB)
                  80356b80    00000040                        : _data_synch.obj (.text:__TI_data_synch_WBINV)
                  80356bc0    00000040                        : _mutex.obj (.text:__TI_resource_unlock)
                  80356c00    00000040                        : isinf.obj (.text:__c6xabi_isinf)
                  80356c40    00000040                        : _printfi.obj (.text:__c6xabi_isnan)
                  80356c80    00000040                        : call_stub.obj (.text:__call_stub)
                  80356cc0    00000040                        : strasg.obj (.text:__strasgi_64plus)
                  80356d00    00000040                        : args_main.obj (.text:_args_main)
                  80356d40    00000040     hal_timer_bios.ae66 : lltimer.oe66 (.text:_llTimerInit)
                  80356d80    00000040     rts6600_elf_mt.lib : vsprintf.obj (.text:_outs)
                  80356dc0    00000040     sysbios.ae66 : c62_TaskSupport_asm.obj (.text:_ti_sysbios_family_c62_TaskSupport_buildTaskStack)
                  80356e00    00000040                  : c64p_Hwi_asm_switch.obj (.text:_ti_sysbios_family_xxx_Hwi_switchToIsrStack)
                  80356e40    00000040     os.ae66 : efs.oe66 (.text:efs_loadfunction)
                  80356e80    00000040     stk6_ppp_pppoe.ae66 : file.oe66 (.text:fdint_freefdt)
                  80356ec0    00000040     Disparity_pe66.oe66 (.text:free)
                  80356f00    00000040     nettool.ae66 : inetaddr.oe66 (.text:inet_addr)
                  80356f40    00000040     rts6600_elf_mt.lib : _mutex.obj (.text:init_mutexes)
                  80356f80    00000040     stk6_ppp_pppoe.ae66 : listlib.oe66 (.text:list_add)
                  80356fc0    00000040                         : listlib.oe66 (.text:list_remove)
                  80357000    00000040     ti.drv.pa.ae66 : pa.oe66 (.text:pa_mac_match)
                  80357040    00000040     rts6600_elf_mt.lib : _pthread.obj (.text:pthread_self)
                  80357080    00000040     Disparity_pe66.oe66 (.text:ti_sysbios_BIOS_startFunc__I)
                  803570c0    00000040     sysbios.ae66 : BIOS.obj (.text:ti_sysbios_family_c64p_EventCombiner_disableEvent__F)
                  80357100    00000040                  : BIOS.obj (.text:ti_sysbios_family_c64p_EventCombiner_enableEvent__F)
                  80357140    00000040     Disparity_pe66.oe66 (.text:ti_sysbios_family_c64p_Hwi_Module__startupDone__F)
                  80357180    00000040     sysbios.ae66 : BIOS.obj (.text:ti_sysbios_family_c64p_Hwi_disableInterrupt__E)
                  803571c0    00000040                  : BIOS.obj (.text:ti_sysbios_family_c64p_Hwi_enableInterrupt__E)
                  80357200    00000040     Disparity_pe66.oe66 (.text:ti_sysbios_gates_GateHwi_Handle__label__S)
                  80357240    00000040     Disparity_pe66.oe66 (.text:ti_sysbios_gates_GateHwi_Object__delete__S)
                  80357280    00000040     Disparity_pe66.oe66 (.text:ti_sysbios_gates_GateMutex_Handle__label__S)
                  803572c0    00000040     sysbios.ae66 : BIOS.obj (.text:ti_sysbios_gates_GateMutex_leave__E)
                  80357300    00000040     Disparity_pe66.oe66 (.text:ti_sysbios_hal_Timer_Module__startupDone__F)
                  80357340    00000040     Disparity_pe66.oe66 (.text:ti_sysbios_heaps_HeapMem_Handle__label__S)
                  80357380    00000040     Disparity_pe66.oe66 (.text:ti_sysbios_heaps_HeapMem_Object__delete__S)
                  803573c0    00000040     Disparity_pe66.oe66 (.text:ti_sysbios_heaps_HeapMem_Object__get__S)
                  80357400    00000040     Disparity_pe66.oe66 (.text:ti_sysbios_knl_Semaphore_Object__destruct__S)
                  80357440    00000040     Disparity_pe66.oe66 (.text:ti_sysbios_knl_Swi_Object__get__S)
                  80357480    00000040     Disparity_pe66.oe66 (.text:ti_sysbios_knl_Task_Object__get__S)
                  803574c0    00000040     Disparity_pe66.oe66 (.text:ti_sysbios_timers_timer64_Timer_Module__startupDone__F)
                  80357500    00000040     ti.targets.rts6000.ae66 : Error.oe66 (.text:xdc_runtime_Error_check__F)
                  80357540    00000040                             : Error.oe66 (.text:xdc_runtime_Error_init__F)
                  80357580    00000040                             : Gate.oe66 (.text:xdc_runtime_Gate_leaveSystem__F)
                  803575c0    00000040     Disparity_pe66.oe66 (.text:xdc_runtime_LoggerBuf_Handle__label__S)
                  80357600    00000040     ti.targets.rts6000.ae66 : LoggerBuf.oe66 (.text:xdc_runtime_LoggerBuf_Instance_finalize__F)
                  80357640    00000040     Disparity_pe66.oe66 (.text:xdc_runtime_LoggerBuf_Object__get__S)
                  80357680    00000040     ti.targets.rts6000.ae66 : LoggerBuf.oe66 (.text:xdc_runtime_LoggerBuf_write0__F)
                  803576c0    00000040                             : LoggerBuf.oe66 (.text:xdc_runtime_LoggerBuf_write1__F)
                  80357700    00000040                             : LoggerBuf.oe66 (.text:xdc_runtime_LoggerBuf_write2__F)
                  80357740    00000040                             : Memory.oe66 (.text:xdc_runtime_Memory_free__F)
                  80357780    00000040                             : Registry.oe66 (.text:xdc_runtime_Registry_findById__F)
                  803577c0    00000040                             : System.oe66 (.text:xdc_runtime_System_abort__F)
                  80357800    00000040     Disparity_pe66.oe66 (.text:xdc_runtime_System_aprintf__E)
                  80357840    00000040     Disparity_pe66.oe66 (.text:xdc_runtime_System_printf__E)
                  80357880    00000040     ti.targets.rts6000.ae66 : System.oe66 (.text:xdc_runtime_System_vsprintf__F)
                  803578c0    00000040                             : Text.oe66 (.text:xdc_runtime_Text_ropeText__F)
                  80357900    00000020     stk6_ppp_pppoe.ae66 : bind6.oe66 (.text:Bind6GetInterfaceHandle)
                  80357920    00000020                         : bind6.oe66 (.text:Bind6GetLifetime)
                  80357940    00000020                         : bind6.oe66 (.text:Bind6SetLifetime)
                  80357960    00000020                         : bind.oe66 (.text:BindGetFirst)
                  80357980    00000020                         : bind.oe66 (.text:BindGetIF)
                  803579a0    00000020                         : bind.oe66 (.text:BindGetNext)
                  803579c0    00000020                         : bind.oe66 (.text:BindIFNet2IPHost)
                  803579e0    00000020                         : bind.oe66 (.text:BindIPHost2IF)
                  80357a00    00000020     nettool.ae66 : config.oe66 (.text:CfgSetDefault)
                  80357a20    00000020     ti.drv.cppi.ae66 : cppi_drv.oe66 (.text:Cppi_init)
                  80357a40    00000020     stk6_ppp_pppoe.ae66 : exec.oe66 (.text:ExecHRef)
                  80357a60    00000020                         : exec.oe66 (.text:ExecLowResource)
                  80357a80    00000020                         : ip.oe66 (.text:IPRtChange)
                  80357aa0    00000020     hal_userled_stub.ae66 : llled.oe66 (.text:LED_TOGGLE)
                  80357ac0    00000020     stk6_ppp_pppoe.ae66 : lli6.oe66 (.text:LLI6GetNetDevice)
                  80357ae0    00000020                         : lli6.oe66 (.text:LLI6IncRefCount)
                  80357b00    00000020                         : lli6.oe66 (.text:LLI6IsDead)
                  80357b20    00000020                         : lli6.oe66 (.text:LLI6IsRouter)
                  80357b40    00000020                         : lli6.oe66 (.text:LLI6SetIncomplete)
                  80357b60    00000020     netctrl.ae66 : netctrl.oe66 (.text:NC_IPUpdate)
                  80357b80    00000020                  : netctrl.oe66 (.text:NC_NetStop)
                  80357ba0    00000020     os.ae66 : task.oe66 (.text:NDK_hookInit)
                  80357bc0    00000020     stk6_ppp_pppoe.ae66 : nimu.oe66 (.text:NIMUGetRsvdSizeInfo)
                  80357be0    00000020                         : nimu.oe66 (.text:NIMUSetRsvdSizeInfo)
                  80357c00    00000020                         : nat.oe66 (.text:NatMsg)
                  80357c20    00000020                         : node.oe66 (.text:NodeSetRt)
                  80357c40    00000020     os.ae66 : task.oe66 (.text:NotifyLowResource)
                  80357c60    00000020             : oem.oe66 (.text:OEMCacheClean)
                  80357c80    00000020             : oem.oe66 (.text:OEMSysCritOff)
                  80357ca0    00000020             : oem.oe66 (.text:OEMSysCritOn)
                  80357cc0    00000020     stk6_ppp_pppoe.ae66 : pbm.oe66 (.text:PBM_close)
                  80357ce0    00000020     ti.drv.qmss.ae66 : qmss_drv.oe66 (.text:Qmss_getQueueNumber)
                  80357d00    00000020                      : qmss_drv.oe66 (.text:Qmss_start)
                  80357d20    00000020     stk6_ppp_pppoe.ae66 : rawethsock_prot.oe66 (.text:RawEthSockPrAttach)
                  80357d40    00000020                         : rawethsock_prot.oe66 (.text:RawEthSockPrDetach)
                  80357d60    00000020                         : route6.oe66 (.text:Rt6GetIF)
                  80357d80    00000020                         : route6.oe66 (.text:Rt6GetLLI)
                  80357da0    00000020                         : route6.oe66 (.text:Rt6GetMTU)
                  80357dc0    00000020                         : route6.oe66 (.text:Rt6IncRefCount)
                  80357de0    00000020                         : route6.oe66 (.text:Rt6IsLocalRoute)
                  80357e00    00000020     os.ae66 : semaphore.oe66 (.text:SemDelete)
                  80357e20    00000020             : semaphore.oe66 (.text:SemPend)
                  80357e40    00000020             : semaphore.oe66 (.text:SemPost)
                  80357e60    00000020             : semaphore.oe66 (.text:SemReset)
                  80357e80    00000020     stk6_ppp_pppoe.ae66 : sock6prot.oe66 (.text:Sock6PrAttach)
                  80357ea0    00000020                         : sock6int.oe66 (.text:Sock6SetOOBData)
                  80357ec0    00000020                         : sockprot.oe66 (.text:SockPrAttach)
                  80357ee0    00000020                         : sockint.oe66 (.text:SockSetOOBData)
                  80357f00    00000020                         : tcp6prot.oe66 (.text:TCP6PrRecv)
                  80357f20    00000020                         : tcp6.oe66 (.text:TCP6TimeoutAdd)
                  80357f40    00000020     os.ae66 : task.oe66 (.text:TaskBlock)
                  80357f60    00000020             : task.oe66 (.text:TaskSelf)
                  80357f80    00000020             : task.oe66 (.text:TaskSetPri)
                  80357fa0    00000020     stk6_ppp_pppoe.ae66 : tcpprot.oe66 (.text:TcpPrRecv)
                  80357fc0    00000020                         : tcp.oe66 (.text:TcpTimeoutAdd)
                  80357fe0    00000020                         : timer.oe66 (.text:TimerFree)
                  80358000    00000020     os.ae66 : task.oe66 (.text:_TaskInit)
                  80358020    00000020             : task.oe66 (.text:_TaskShutdown)
                  80358040    00000020     rts6600_elf_mt.lib : _data_synch.obj (.text:__TI_data_synch_INV)
                  80358060    00000020                        : negll.obj (.text:__c6xabi_negll)
                  80358080    00000020                        : dtor_list.obj (.text:__cxa_atexit)
                  803580a0    00000020                        : dtor_list.obj (.text:__cxa_ia64_exit)
                  803580c0    00000020                        : push.obj (.text:__pop_rts)
                  803580e0    00000020                        : push.obj (.text:__push_rts)
                  80358100    00000020     ti.targets.rts6000.ae66 : xdc_noinit.oe66 (.text:__xdc__init)
                  80358120    00000020     hal_ser_stub.ae66 : llserstb.oe66 (.text:_llSerialInit)
                  80358140    00000020                       : llserstb.oe66 (.text:_llSerialServiceCheck)
                  80358160    00000020                       : llserstb.oe66 (.text:_llSerialShutdown)
                  80358180    00000020     hal_timer_bios.ae66 : lltimer.oe66 (.text:_llTimerShutdown)
                  803581a0    00000020     hal_userled_stub.ae66 : llled.oe66 (.text:_llUserLedInit)
                  803581c0    00000020                           : llled.oe66 (.text:_llUserLedShutdown)
                  803581e0    00000020     rts6600_elf_mt.lib : _lock.obj (.text:_nop)
                  80358200    00000020                        : printf.obj (.text:_outc)
                  80358220    00000020                        : vsprintf.obj (.text:_outc)
                  80358240    00000020                        : printf.obj (.text:_outs)
                  80358260    00000020                        : _lock.obj (.text:_register_lock)
                  80358280    00000020                        : _lock.obj (.text:_register_unlock)
                  803582a0    00000020     sysbios.ae66 : c62_TaskSupport_asm.obj (.text:_ti_sysbios_family_c62_TaskSupport_glue)
                  803582c0    00000020                  : c64p_Hwi_asm_switch.obj (.text:_ti_sysbios_family_xxx_Hwi_switchToTaskStack)
                  803582e0    00000020     rts6600_elf_mt.lib : exit.obj (.text:abort)
                  80358300    00000020                        : dtor_list.obj (.text:atexit)
                  80358320    00000020     ti.drv.cppi.ae66 : cppi_heap.oe66 (.text:cppi_internal_heap_free)
                  80358340    00000020                      : cppi_listlib.oe66 (.text:cppi_list_get_head)
                  80358360    00000020                      : cppi_listlib.oe66 (.text:cppi_list_get_next)
                  80358380    00000020     rts6600_elf_mt.lib : copy_decompress_none.obj (.text:decompress:none:__TI_decompress_none)
                  803583a0    00000020                        : copy_decompress_rle.obj (.text:decompress:rle24:__TI_decompress_rle24)
                  803583c0    00000020                        : _mutex.obj (.text:delete_mutexes)
                  803583e0    00000020     os.ae66 : efs.oe66 (.text:efs_getfilesize)
                  80358400    00000020     stk6_ppp_pppoe.ae66 : file.oe66 (.text:fdint_signaltimeout)
                  80358420    00000020                         : listlib.oe66 (.text:list_get_head)
                  80358440    00000020                         : listlib.oe66 (.text:list_get_next)
                  80358460    00000020     hal_ser_stub.ae66 : llserstb.oe66 (.text:llSerialService)
                  80358480    00000020     hal_timer_bios.ae66 : lltimer.oe66 (.text:llTimerGetStartTime)
                  803584a0    00000020     rts6600_elf_mt.lib : _mutex.obj (.text:mutex_destroy)
                  803584c0    00000020     ti.drv.pa.ae66 : pa.oe66 (.text:pa_u16_match)
                  803584e0    00000020                    : pa.oe66 (.text:pa_u32_match)
                  80358500    00000020     rts6600_elf_mt.lib : _pthread.obj (.text:pthread_equal)
                  80358520    00000020                        : fputc.obj (.text:putc)
                  80358540    00000020                        : fputc.obj (.text:putchar)
                  80358560    00000020     Disparity_pe66.oe66 (.text:ti_sysbios_BIOS_RtsGateProxy_enter__E)
                  80358580    00000020     Disparity_pe66.oe66 (.text:ti_sysbios_BIOS_RtsGateProxy_leave__E)
                  803585a0    00000020     sysbios.ae66 : BIOS.obj (.text:ti_sysbios_BIOS_getCpuFreq__E)
                  803585c0    00000020                  : BIOS.obj (.text:ti_sysbios_BIOS_nullFunc__I)
                  803585e0    00000020                  : BIOS.obj (.text:ti_sysbios_BIOS_setThreadType__E)
                  80358600    00000020                  : BIOS.obj (.text:ti_sysbios_BIOS_start__E)
                  80358620    00000020     Disparity_pe66.oe66 (.text:ti_sysbios_family_c62_TaskSupport_Module__startupDone__S)
                  80358640    00000020     sysbios.ae66 : BIOS.obj (.text:ti_sysbios_family_c62_TaskSupport_checkStack__E)
                  80358660    00000020                  : BIOS.obj (.text:ti_sysbios_family_c62_TaskSupport_getStackAlignment__E)
                  80358680    00000020                  : BIOS.obj (.text:ti_sysbios_family_c64p_Hwi_clearInterrupt__E)
                  803586a0    00000020                  : BIOS.obj (.text:ti_sysbios_family_c64p_Hwi_startup__E)
                  803586c0    00000020                  : BIOS.obj (.text:ti_sysbios_family_c64p_Hwi_switchFromBootStack__E)
                  803586e0    00000020                  : BIOS.obj (.text:ti_sysbios_family_c64p_TimestampProvider_Module_startup__F)
                  80358700    00000020                  : BIOS.obj (.text:ti_sysbios_family_c64p_TimestampProvider_get32__E)
                  80358720    00000020                  : BIOS.obj (.text:ti_sysbios_family_c64p_TimestampProvider_get64__E)
                  80358740    00000020                  : BIOS.obj (.text:ti_sysbios_family_c64p_tci6488_TimerSupport_enable__E)
                  80358760    00000020                  : BIOS.obj (.text:ti_sysbios_family_c66_Cache_wbInv__E)
                  80358780    00000020                  : BIOS.obj (.text:ti_sysbios_gates_GateHwi_Instance_init__F)
                  803587a0    00000020                  : BIOS.obj (.text:ti_sysbios_gates_GateHwi_enter__E)
                  803587c0    00000020                  : BIOS.obj (.text:ti_sysbios_gates_GateHwi_leave__E)
                  803587e0    00000020                  : BIOS.obj (.text:ti_sysbios_gates_GateHwi_query__F)
                  80358800    00000020                  : BIOS.obj (.text:ti_sysbios_gates_GateMutex_Instance_finalize__F)
                  80358820    00000020                  : BIOS.obj (.text:ti_sysbios_gates_GateMutex_query__F)
                  80358840    00000020     Disparity_pe66.oe66 (.text:ti_sysbios_hal_Hwi_HwiProxy_Module__startupDone__S)
                  80358860    00000020     sysbios.ae66 : BIOS.obj (.text:ti_sysbios_hal_Hwi_Module_startup__F)
                  80358880    00000020                  : BIOS.obj (.text:ti_sysbios_hal_Timer_Module_startup__F)
                  803588a0    00000020     Disparity_pe66.oe66 (.text:ti_sysbios_hal_Timer_TimerProxy_Module__startupDone__S)
                  803588c0    00000020     Disparity_pe66.oe66 (.text:ti_sysbios_hal_Timer_TimerProxy_getExpiredCounts__E)
                  803588e0    00000020     Disparity_pe66.oe66 (.text:ti_sysbios_hal_Timer_TimerProxy_getPeriod__E)
                  80358900    00000020     Disparity_pe66.oe66 (.text:ti_sysbios_hal_Timer_TimerProxy_setNextTick__E)
                  80358920    00000020     Disparity_pe66.oe66 (.text:ti_sysbios_heaps_HeapBuf_Object__get__S)
                  80358940    00000020     Disparity_pe66.oe66 (.text:ti_sysbios_heaps_HeapMem_Module_GateProxy_enter__E)
                  80358960    00000020     Disparity_pe66.oe66 (.text:ti_sysbios_heaps_HeapMem_Module_GateProxy_leave__E)
                  80358980    00000020     sysbios.ae66 : BIOS.obj (.text:ti_sysbios_heaps_HeapMem_isBlocking__E)
                  803589a0    00000020     Disparity_pe66.oe66 (.text:ti_sysbios_knl_Clock_Params__init__S)
                  803589c0    00000020     sysbios.ae66 : BIOS.obj (.text:ti_sysbios_knl_Idle_loop__E)
                  803589e0    00000020                  : BIOS.obj (.text:ti_sysbios_knl_Queue_Instance_init__F)
                  80358a00    00000020     Disparity_pe66.oe66 (.text:ti_sysbios_knl_Queue_Object__destruct__S)
                  80358a20    00000020     Disparity_pe66.oe66 (.text:ti_sysbios_knl_Queue_Object__get__S)
                  80358a40    00000020     sysbios.ae66 : BIOS.obj (.text:ti_sysbios_knl_Queue_empty__E)
                  80358a60    00000020                  : BIOS.obj (.text:ti_sysbios_knl_Semaphore_Instance_finalize__F)
                  80358a80    00000020     Disparity_pe66.oe66 (.text:ti_sysbios_knl_Semaphore_Params__init__S)
                  80358aa0    00000020     sysbios.ae66 : BIOS.obj (.text:ti_sysbios_knl_Semaphore_reset__E)
                  80358ac0    00000020                  : BIOS.obj (.text:ti_sysbios_knl_Swi_disable__E)
                  80358ae0    00000020     Disparity_pe66.oe66 (.text:ti_sysbios_knl_Task_Object__first__S)
                  80358b00    00000020     Disparity_pe66.oe66 (.text:ti_sysbios_knl_Task_Object__next__S)
                  80358b20    00000020     Disparity_pe66.oe66 (.text:ti_sysbios_knl_Task_Params__init__S)
                  80358b40    00000020     Disparity_pe66.oe66 (.text:ti_sysbios_knl_Task_SupportProxy_Module__startupDone__S)
                  80358b60    00000020     sysbios.ae66 : BIOS.obj (.text:ti_sysbios_knl_Task_disable__E)
                  80358b80    00000020                  : BIOS.obj (.text:ti_sysbios_knl_Task_getHookContext__E)
                  80358ba0    00000020                  : BIOS.obj (.text:ti_sysbios_knl_Task_self__E)
                  80358bc0    00000020                  : BIOS.obj (.text:ti_sysbios_knl_Task_setHookContext__E)
                  80358be0    00000020                  : BIOS.obj (.text:ti_sysbios_knl_Task_startup__E)
                  80358c00    00000020                  : BIOS.obj (.text:ti_sysbios_timers_timer64_Timer_setNextTick__E)
                  80358c20    00000020     ti.targets.rts6000.ae66 : Error.oe66 (.text:xdc_runtime_Error_getMsg__F)
                  80358c40    00000020                             : Gate.oe66 (.text:xdc_runtime_Gate_enterSystem__F)
                  80358c60    00000020     Disparity_pe66.oe66 (.text:xdc_runtime_IHeap_alloc)
                  80358c80    00000020     Disparity_pe66.oe66 (.text:xdc_runtime_IHeap_free)
                  80358ca0    00000020     Disparity_pe66.oe66 (.text:xdc_runtime_LoggerBuf_Module_GateProxy_enter__E)
                  80358cc0    00000020     Disparity_pe66.oe66 (.text:xdc_runtime_LoggerBuf_Module_GateProxy_leave__E)
                  80358ce0    00000020     ti.targets.rts6000.ae66 : LoggerBuf.oe66 (.text:xdc_runtime_LoggerBuf_disable__F)
                  80358d00    00000020                             : LoggerBuf.oe66 (.text:xdc_runtime_LoggerBuf_enable__F)
                  80358d20    00000020     Disparity_pe66.oe66 (.text:xdc_runtime_Memory_HeapProxy_alloc__E)
                  80358d40    00000020     Disparity_pe66.oe66 (.text:xdc_runtime_Memory_HeapProxy_free__E)
                  80358d60    00000020     Disparity_pe66.oe66 (.text:xdc_runtime_Startup_exec__I)
                  80358d80    00000020     Disparity_pe66.oe66 (.text:xdc_runtime_Startup_reset__I)
                  80358da0    00000020     ti.targets.rts6000.ae66 : SysStd.oe66 (.text:xdc_runtime_SysStd_exit__F)
                  80358dc0    00000020                             : SysStd.oe66 (.text:xdc_runtime_SysStd_putch__F)
                  80358de0    00000020                             : SysStd.oe66 (.text:xdc_runtime_SysStd_ready__F)
                  80358e00    00000020     Disparity_pe66.oe66 (.text:xdc_runtime_System_Module_GateProxy_enter__E)
                  80358e20    00000020     Disparity_pe66.oe66 (.text:xdc_runtime_System_Module_GateProxy_leave__E)
                  80358e40    00000020     ti.targets.rts6000.ae66 : System.oe66 (.text:xdc_runtime_System_Module_startup__F)
                  80358e60    00000020                             : System.oe66 (.text:xdc_runtime_System_exit__F)
                  80358e80    00000020                             : System.oe66 (.text:xdc_runtime_System_lastFxn__I)
                  80358ea0    00000020                             : System.oe66 (.text:xdc_runtime_System_vsnprintf__F)
                  80358ec0    00000020     Disparity_pe66.oe66 (.text:xdc_runtime_Text_visitRope__I)

.far.1     0    80358ee0    0000dbc8     UNINITIALIZED
                  80358ee0    0000c1c0     os.ae66 : mem_data.oe66 (.far:NDK_MMBUFFER)
                  803650a0    00000818     Disparity_pe66.oe66 (.far)
                  803658b8    00000008     rts6600_elf_mt.lib : trgdrv.obj (.far)
                  803658c0    00000660     nettool.ae66 : daemon.oe66 (.far)
                  80365f20    00000150     rts6600_elf_mt.lib : _mutex.obj (.far)
                  80366070    00000140                        : defs.obj (.far)
                  803661b0    00000120     ti.drv.qmss.ae66 : qmss_drv.oe66 (.far)
                  803662d0    00000110     stk6_ppp_pppoe.ae66 : igmp.oe66 (.far)
                  803663e0    000000d8     netctrl.ae66 : netsrv.oe66 (.far)
                  803664b8    000000c8     stk6_ppp_pppoe.ae66 : ipv6.oe66 (.far)
                  80366580    000000c4                         : tcp.oe66 (.far)
                  80366644    000000b8                         : tcp6in.oe66 (.far)
                  803666fc    00000004                         : rawethsock_pcb.oe66 (.far)
                  80366700    0000009c                         : icmp.oe66 (.far)
                  8036679c    00000094     Initialise.obj (.far)
                  80366830    0000007c     os.ae66 : mem.oe66 (.far)
                  803668ac    00000068     stk6_ppp_pppoe.ae66 : ip.oe66 (.far)
                  80366914    00000064                         : nimu.oe66 (.far)
                  80366978    00000044     ti.platform.evm6678l.ae66 : evmc66x_i2c_eeprom.obj (.far)
                  803669bc    00000030     stk6_ppp_pppoe.ae66 : udp.oe66 (.far)
                  803669ec    00000004     --HOLE--
                  803669f0    00000030     ti.transport.ndk.nimu.ae66 : nimu_eth.obj (.far)
                  80366a20    00000028     stk6_ppp_pppoe.ae66 : vlan.oe66 (.far)
                  80366a48    00000024                         : udp6.oe66 (.far)
                  80366a6c    00000004     --HOLE--
                  80366a70    00000020     resourcemgr.obj (.far)
                  80366a90    00000018     stk6_ppp_pppoe.ae66 : icmpv6.oe66 (.far)

.far.2     0    80366ab0    00000060     UNINITIALIZED
                  80366ab0    00000014     stk6_ppp_pppoe.ae66 : rtc.oe66 (.far)
                  80366ac4    00000010     netctrl.ae66 : netctrl.oe66 (.far)
                  80366ad4    00000010     stk6_ppp_pppoe.ae66 : raw.oe66 (.far)
                  80366ae4    00000010                         : raw6.oe66 (.far)
                  80366af4    00000010                         : raweth.oe66 (.far)
                  80366b04    0000000c                         : pbm.oe66 (.far)

.const     0    80366b10    00009e50     
                  80366b10    00001dc8     resourcemgr.obj (.const:c1)
                  803688d8    000018ac     resourcemgr.obj (.const:m)
                  8036a184    00000004     nettool.ae66 : telnetd.oe66 (.const:.string)
                  8036a188    000015f1     Disparity_pe66.oe66 (.const:xdc_runtime_Text_charTab__A)
                  8036b779    00000006     stk6_ppp_pppoe.ae66 : auth.oe66 (.const:.string)
                  8036b77f    00000001     --HOLE-- [fill = 0]
                  8036b780    0000118c     resourcemgr.obj (.const:c2)
                  8036c90c    000007d4     ti.transport.ndk.nimu.ae66 : nimu_eth.obj (.const:.string)
                  8036d0e0    00000683     sysbios.ae66 : BIOS.obj (.const:.string)
                  8036d763    00000001     --HOLE-- [fill = 0]
                  8036d764    00000004     ti.targets.rts6000.ae66 : Assert.oe66 (.const:.string)
                  8036d768    00000630     resourcemgr.obj (.const:acc48_le)
                  8036dd98    00000400     Disparity_pe66.oe66 (.const:ti_sysbios_family_c66_Cache_marvalues__C)
                  8036e198    00000397     resourcemgr.obj (.const:.string)
                  8036e52f    00000257     Initialise.obj (.const:.string)
                  8036e786    00000194     nettool.ae66 : httpsend.oe66 (.const:.string)
                  8036e91a    00000190     stk6_ppp_pppoe.ae66 : bind6.oe66 (.const:.string)
                  8036eaaa    0000015c                         : route6.oe66 (.const:.string)
                  8036ec06    0000014f     os.ae66 : mem.oe66 (.const:.string)
                  8036ed55    00000121     stk6_ppp_pppoe.ae66 : nimuppp.oe66 (.const:.string)
                  8036ee76    00000109     os.ae66 : task.oe66 (.const:.string)
                  8036ef7f    00000001     --HOLE-- [fill = 0]
                  8036ef80    00000101     rts6600_elf_mt.lib : ctype.obj (.const:.string:_ctypes_)
                  8036f081    00000001     --HOLE-- [fill = 0]
                  8036f082    00000002     Disparity_pe66.oe66 (.const:ti_sysbios_BIOS_Module__id__C)
                  8036f084    00000004     ti.platform.evm6678l.ae66 : evmc66x_i2c_eeprom.obj (.const)
                  8036f088    000000f8     Disparity_pe66.oe66 (.const:xdc_runtime_Text_nodeTab__A)
                  8036f180    000000d9     stk6_ppp_pppoe.ae66 : vlan.oe66 (.const:.string)
                  8036f259    000000d8                         : node.oe66 (.const:.string)
                  8036f331    000000d7     nettool.ae66 : httpstr.oe66 (.const:.string)
                  8036f408    000000cf     stk6_ppp_pppoe.ae66 : rtc.oe66 (.const:.string)
                  8036f4d7    000000bf                         : lliout.oe66 (.const:.string)
                  8036f596    000000b7                         : icmpv6_ndisc.oe66 (.const:.string)
                  8036f64d    000000b1                         : icmpv6out.oe66 (.const:.string)
                  8036f6fe    000000a2                         : nimupppoe.oe66 (.const:.string)
                  8036f7a0    00000099                         : lli6.oe66 (.const:.string)
                  8036f839    00000094                         : nimu.oe66 (.const:.string)
                  8036f8cd    00000001     --HOLE-- [fill = 0]
                  8036f8ce    00000002     Disparity_pe66.oe66 (.const:ti_sysbios_family_c64p_EventCombiner_Module__id__C)
                  8036f8d0    00000064     ti.platform.evm6678l.ae66 : platform.obj (.const)
                  8036f934    00000064     ti.transport.ndk.nimu.ae66 : nimu_eth.obj (.const)
                  8036f998    00000063     Controller.obj (.const:.string)
                  8036f9fb    00000060     stk6_ppp_pppoe.ae66 : sb.oe66 (.const:.string)
                  8036fa5b    00000001     --HOLE-- [fill = 0]
                  8036fa5c    00000004     ti.platform.evm6678l.ae66 : evmc66x_spi.obj (.const)
                  8036fa60    00000060     ti.drv.pa.ae66 : pa.oe66 (.const:pap_pdsp_const_reg_map)
                  8036fac0    0000005f     Disparity_pe66.oe66 (.const:.string)
                  8036fb1f    0000005a     stk6_ppp_pppoe.ae66 : mld.oe66 (.const:.string)
                  8036fb79    00000058                         : sock6.oe66 (.const:.string)
                  8036fbd1    00000058                         : tcp6time.oe66 (.const:.string)
                  8036fc29    00000058                         : tcptime.oe66 (.const:.string)
                  8036fc81    00000001     --HOLE-- [fill = 0]
                  8036fc82    00000002     Disparity_pe66.oe66 (.const:ti_sysbios_family_c64p_Exception_Module__id__C)
                  8036fc84    00000058     ti.targets.rts6000.ae66 : Error.oe66 (.const:.string)
                  8036fcdc    00000056     DataTransfer.obj (.const:.string)
                  8036fd32    00000056     os.ae66 : semaphore.oe66 (.const:.string)
                  8036fd88    00000055     ti.platform.evm6678l.ae66 : platform.obj (.const:.string)
                  8036fddd    00000001     --HOLE-- [fill = 0]
                  8036fdde    00000002     Disparity_pe66.oe66 (.const:ti_sysbios_family_c64p_Exception_enableExternalMPC__C)
                  8036fde0    00000054     stk6_ppp_pppoe.ae66 : sockprot.oe66 (.const:Code2Err)
                  8036fe34    00000050                         : bind.oe66 (.const:.string)
                  8036fe84    0000004e                         : rtable.oe66 (.const:.string)
                  8036fed2    00000041     nettool.ae66 : httpclie.oe66 (.const:.string)
                  8036ff13    00000041     stk6_ppp_pppoe.ae66 : sb6.oe66 (.const:.string)
                  8036ff54    00000040     ti.targets.rts6000.ae66 : Text.oe66 (.const:.string)
                  8036ff94    0000003e     stk6_ppp_pppoe.ae66 : ipv6.oe66 (.const:.string)
                  8036ffd2    00000002     Disparity_pe66.oe66 (.const:ti_sysbios_family_c64p_Exception_enablePrint__C)
                  8036ffd4    0000003c     Disparity_pe66.oe66 (.const:ti_sysbios_knl_Task_Object__PARAMS__C)
                  80370010    0000003c     Disparity_pe66.oe66 (.const:xdc_runtime_LoggerBuf_Module__FXNS__C)
                  8037004c    00000004     ti.platform.evm6678l.ae66 : evmc66x_uart.obj (.const)
                  80370050    00000038     Disparity_pe66.oe66 (.const:xdc_runtime_Startup_sfxnTab__A)
                  80370088    00000037     netctrl.ae66 : netctrl.oe66 (.const:.string)
                  803700bf    00000031     nettool.ae66 : dhcpmain.oe66 (.const:.string)
                  803700f0    00000031     stk6_ppp_pppoe.ae66 : pbm.oe66 (.const:.string)
                  80370121    00000001     --HOLE-- [fill = 0]
                  80370122    00000002     Disparity_pe66.oe66 (.const:ti_sysbios_family_c64p_Exception_useInternalBuffer__C)
                  80370124    00000004     Disparity_pe66.oe66 (.const:ti_sysbios_BIOS_Module__diagsEnabled__C)
                  80370128    00000030     Disparity_pe66.oe66 (.const:ti_sysbios_knl_Task_hooks__A)
                  80370158    0000002f     stk6_ppp_pppoe.ae66 : sock.oe66 (.const:.string)
                  80370187    00000001     --HOLE-- [fill = 0]
                  80370188    0000002c     ti.targets.rts6000.ae66 : Startup.oe66 (.const:.string)
                  803701b4    00000028     stk6_ppp_pppoe.ae66 : icmpv6in.oe66 (.const:.string)
                  803701dc    00000028     Disparity_pe66.oe66 (.const:ti_sysbios_heaps_HeapMem_Module__FXNS__C)
                  80370204    00000028     Disparity_pe66.oe66 (.const:xdc_runtime_LoggerBuf_Object__PARAMS__C)
                  8037022c    00000027     stk6_ppp_pppoe.ae66 : ipv6_exthdrs.oe66 (.const:.string)
                  80370253    00000001     --HOLE-- [fill = 0]
                  80370254    00000024     Disparity_pe66.oe66 (.const:ti_sysbios_gates_GateHwi_Module__FXNS__C)
                  80370278    00000024     Disparity_pe66.oe66 (.const:ti_sysbios_gates_GateMutex_Module__FXNS__C)
                  8037029c    00000024     Disparity_pe66.oe66 (.const:ti_sysbios_heaps_HeapMem_Object__PARAMS__C)
                  803702c0    00000024     Disparity_pe66.oe66 (.const:ti_sysbios_knl_Clock_Object__PARAMS__C)
                  803702e4    00000024     Disparity_pe66.oe66 (.const:ti_sysbios_knl_Semaphore_Object__PARAMS__C)
                  80370308    00000023     rts6600_elf_mt.lib : _printfi.obj (.const:.string)
                  8037032b    00000001     --HOLE-- [fill = 0]
                  8037032c    00000020     Disparity_pe66.oe66 (.const:ti_sysbios_gates_GateHwi_Object__DESC__C)
                  8037034c    00000020     Disparity_pe66.oe66 (.const:ti_sysbios_gates_GateMutex_Object__DESC__C)
                  8037036c    00000020     Disparity_pe66.oe66 (.const:ti_sysbios_heaps_HeapMem_Object__DESC__C)
                  8037038c    00000020     Disparity_pe66.oe66 (.const:ti_sysbios_knl_Clock_Object__DESC__C)
                  803703ac    00000020     Disparity_pe66.oe66 (.const:ti_sysbios_knl_Queue_Object__DESC__C)
                  803703cc    00000020     Disparity_pe66.oe66 (.const:ti_sysbios_knl_Semaphore_Object__DESC__C)
                  803703ec    00000020     Disparity_pe66.oe66 (.const:ti_sysbios_knl_Task_Object__DESC__C)
                  8037040c    00000020     Disparity_pe66.oe66 (.const:xdc_runtime_LoggerBuf_Object__DESC__C)
                  8037042c    00000004     Disparity_pe66.oe66 (.const:ti_sysbios_BIOS_Module__diagsIncluded__C)
                  80370430    0000001e     ti.transport.ndk.nimu.ae66 : nimu_eth.obj (.const:$P$T4$5)
                  8037044e    0000001e     nettool.ae66 : daemon.oe66 (.const:.string)
                  8037046c    0000001d     stk6_ppp_pppoe.ae66 : lli.oe66 (.const:.string)
                  80370489    00000001     --HOLE-- [fill = 0]
                  8037048a    00000002     Disparity_pe66.oe66 (.const:ti_sysbios_family_c64p_Hwi_Module__id__C)
                  8037048c    00000004     Disparity_pe66.oe66 (.const:ti_sysbios_BIOS_Module__diagsMask__C)
                  80370490    0000001c     Disparity_pe66.oe66 (.const:xdc_runtime_Startup_sfxnRts__A)
                  803704ac    00000004     Disparity_pe66.oe66 (.const:ti_sysbios_BIOS_installedErrorHook__C)
                  803704b0    00000018     ti.transport.ndk.nimu.ae66 : nimu_eth.obj (.const:$P$T3$4)
                  803704c8    00000018     nettool.ae66 : config.oe66 (.const:.string)
                  803704e0    00000018     stk6_ppp_pppoe.ae66 : exec.oe66 (.const:.string)
                  803704f8    00000018     resourcemgr.obj (.const)
                  80370510    00000018     Disparity_pe66.oe66 (.const:ti_sysbios_gates_GateHwi_Object__PARAMS__C)
                  80370528    00000018     Disparity_pe66.oe66 (.const:ti_sysbios_gates_GateMutex_Object__PARAMS__C)
                  80370540    00000018     Disparity_pe66.oe66 (.const:ti_sysbios_knl_Queue_Object__PARAMS__C)
                  80370558    00000017     stk6_ppp_pppoe.ae66 : ipout.oe66 (.const:.string)
                  8037056f    00000016                         : ipv6out.oe66 (.const:.string)
                  80370585    00000001     --HOLE-- [fill = 0]
                  80370586    00000002     Disparity_pe66.oe66 (.const:ti_sysbios_family_c64p_Hwi_Module__loggerDefined__C)
                  80370588    00000014     ti.platform.evm6678l.ae66 : evmc66x_nor.obj (.const)
                  8037059c    00000013     stk6_ppp_pppoe.ae66 : fileuser.oe66 (.const:.string)
                  803705af    00000011                         : tcp6prot.oe66 (.const:.string)
                  803705c0    00000011                         : tcpprot.oe66 (.const:.string)
                  803705d1    0000000e                         : timer.oe66 (.const:.string)
                  803705df    00000001     --HOLE-- [fill = 0]
                  803705e0    00000011     ti.targets.rts6000.ae66 : System.oe66 (.const:digtohex)
                  803705f1    00000001     --HOLE-- [fill = 0]
                  803705f2    00000002     Disparity_pe66.oe66 (.const:ti_sysbios_gates_GateMutex_Module__id__C)
                  803705f4    00000004     Disparity_pe66.oe66 (.const:ti_sysbios_family_c62_TaskSupport_stackAlignment__C)
                  803705f8    00000010     ti.drv.pa.ae66 : painit.oe66 (.const:paMemAligns)
                  80370608    00000010     Disparity_pe66.oe66 (.const:ti_sysbios_family_c64p_EventCombiner_EVTMASK__C)
                  80370618    0000000d     os.ae66 : ossys.oe66 (.const:.string)
                  80370625    0000000c             : efs.oe66 (.const:.string)
                  80370631    00000001     --HOLE-- [fill = 0]
                  80370632    00000002     Disparity_pe66.oe66 (.const:ti_sysbios_hal_Hwi_Module__id__C)
                  80370634    0000000c     Disparity_pe66.oe66 (.const:ti_sysbios_family_c66_Cache_initSize__C)
                  80370640    0000000b     stk6_ppp_pppoe.ae66 : route.oe66 (.const:.string)
                  8037064b    00000001     --HOLE-- [fill = 0]
                  8037064c    00000004     Disparity_pe66.oe66 (.const:ti_sysbios_family_c64p_EventCombiner_E_unpluggedEvent__C)
                  80370650    0000000a     ti.platform.evm6678l.ae66 : evm66x_nand.obj (.const:.string:$P$T0$1)
                  8037065a    00000002     Disparity_pe66.oe66 (.const:ti_sysbios_heaps_HeapMem_Module__id__C)
                  8037065c    00000004     Disparity_pe66.oe66 (.const:ti_sysbios_family_c64p_Exception_E_exceptionMax__C)
                  80370660    0000000a     ti.platform.evm6678l.ae66 : evm66x_nand.obj (.const:.string:$P$T1$2)
                  8037066a    00000002     Disparity_pe66.oe66 (.const:ti_sysbios_knl_Clock_Module__id__C)
                  8037066c    00000004     Disparity_pe66.oe66 (.const:ti_sysbios_family_c64p_Exception_E_exceptionMin__C)
                  80370670    00000008     ti.transport.ndk.nimu.ae66 : nimu_eth.obj (.const:$P$T10$11)
                  80370678    00000008                                : nimu_eth.obj (.const:$P$T5$6)
                  80370680    00000008     ti.targets.rts6000.ae66 : System.oe66 (.const:.string)
                  80370688    00000008     ti.platform.evm6678l.ae66 : evm66x_nand.obj (.const)
                  80370690    00000008                               : evmc66x_fpga.obj (.const)
                  80370698    00000008     Disparity_pe66.oe66 (.const:ti_sysbios_knl_Idle_coreList__A)
                  803706a0    00000008     Disparity_pe66.oe66 (.const:ti_sysbios_knl_Idle_coreList__C)
                  803706a8    00000008     Disparity_pe66.oe66 (.const:ti_sysbios_knl_Idle_funcList__A)
                  803706b0    00000008     Disparity_pe66.oe66 (.const:ti_sysbios_knl_Idle_funcList__C)
                  803706b8    00000008     Disparity_pe66.oe66 (.const:ti_sysbios_knl_Task_hooks__C)
                  803706c0    00000008     Disparity_pe66.oe66 (.const:xdc_runtime_Startup_firstFxns__A)
                  803706c8    00000008     Disparity_pe66.oe66 (.const:xdc_runtime_Startup_firstFxns__C)
                  803706d0    00000008     Disparity_pe66.oe66 (.const:xdc_runtime_Startup_lastFxns__A)
                  803706d8    00000008     Disparity_pe66.oe66 (.const:xdc_runtime_Startup_lastFxns__C)
                  803706e0    00000006     ti.transport.ndk.nimu.ae66 : nimu_eth.obj (.const:.string:$P$T0$1)
                  803706e6    00000002     Disparity_pe66.oe66 (.const:ti_sysbios_knl_Clock_Module__loggerDefined__C)
                  803706e8    00000006     ti.transport.ndk.nimu.ae66 : nimu_eth.obj (.const:.string:$P$T6$7)
                  803706ee    00000002     Disparity_pe66.oe66 (.const:ti_sysbios_knl_Semaphore_Module__id__C)
                  803706f0    00000006     ti.transport.ndk.nimu.ae66 : nimu_eth.obj (.const:.string:$P$T7$8)
                  803706f6    00000002     Disparity_pe66.oe66 (.const:ti_sysbios_knl_Semaphore_Module__loggerDefined__C)
                  803706f8    00000004     Disparity_pe66.oe66 (.const:ti_sysbios_family_c64p_Exception_exceptionHook__C)
                  803706fc    00000004     Disparity_pe66.oe66 (.const:ti_sysbios_family_c64p_Exception_externalHook__C)
                  80370700    00000004     Disparity_pe66.oe66 (.const:ti_sysbios_family_c64p_Exception_internalHook__C)
                  80370704    00000004     Disparity_pe66.oe66 (.const:ti_sysbios_family_c64p_Exception_nmiHook__C)
                  80370708    00000004     Disparity_pe66.oe66 (.const:ti_sysbios_family_c64p_Hwi_LD_end__C)
                  8037070c    00000004     Disparity_pe66.oe66 (.const:ti_sysbios_family_c64p_Hwi_LM_begin__C)
                  80370710    00000004     Disparity_pe66.oe66 (.const:ti_sysbios_family_c64p_Hwi_Module__diagsEnabled__C)
                  80370714    00000004     Disparity_pe66.oe66 (.const:ti_sysbios_family_c64p_Hwi_Module__diagsIncluded__C)
                  80370718    00000004     Disparity_pe66.oe66 (.const:ti_sysbios_family_c64p_Hwi_Module__diagsMask__C)
                  8037071c    00000004     Disparity_pe66.oe66 (.const:ti_sysbios_family_c64p_Hwi_Module__loggerFxn1__C)
                  80370720    00000004     Disparity_pe66.oe66 (.const:ti_sysbios_family_c64p_Hwi_Module__loggerFxn8__C)
                  80370724    00000004     Disparity_pe66.oe66 (.const:ti_sysbios_family_c64p_Hwi_Module__loggerObj__C)
                  80370728    00000004     Disparity_pe66.oe66 (.const:ti_sysbios_family_c66_Cache_atomicBlockSize__C)
                  8037072c    00000004     Disparity_pe66.oe66 (.const:ti_sysbios_gates_GateMutex_A_badContext__C)
                  80370730    00000004     Disparity_pe66.oe66 (.const:ti_sysbios_gates_GateMutex_Instance_State_sem__O)
                  80370734    00000004     Disparity_pe66.oe66 (.const:ti_sysbios_gates_GateMutex_Module__diagsEnabled__C)
                  80370738    00000004     Disparity_pe66.oe66 (.const:ti_sysbios_gates_GateMutex_Module__diagsIncluded__C)
                  8037073c    00000004     Disparity_pe66.oe66 (.const:ti_sysbios_gates_GateMutex_Module__diagsMask__C)
                  80370740    00000004     Disparity_pe66.oe66 (.const:ti_sysbios_hal_Hwi_E_stackOverflow__C)
                  80370744    00000004     Disparity_pe66.oe66 (.const:ti_sysbios_heaps_HeapBuf_Instance_State_freeList__O)
                  80370748    00000004     Disparity_pe66.oe66 (.const:ti_sysbios_heaps_HeapBuf_Object__count__C)
                  8037074c    00000004     Disparity_pe66.oe66 (.const:ti_sysbios_heaps_HeapBuf_numConstructedHeaps__C)
                  80370750    00000004     Disparity_pe66.oe66 (.const:ti_sysbios_heaps_HeapMem_A_align__C)
                  80370754    00000004     Disparity_pe66.oe66 (.const:ti_sysbios_heaps_HeapMem_A_heapSize__C)
                  80370758    00000004     Disparity_pe66.oe66 (.const:ti_sysbios_heaps_HeapMem_A_invalidFree__C)
                  8037075c    00000004     Disparity_pe66.oe66 (.const:ti_sysbios_heaps_HeapMem_A_zeroBlock__C)
                  80370760    00000004     Disparity_pe66.oe66 (.const:ti_sysbios_heaps_HeapMem_E_memory__C)
                  80370764    00000004     Disparity_pe66.oe66 (.const:ti_sysbios_heaps_HeapMem_Module__diagsEnabled__C)
                  80370768    00000004     Disparity_pe66.oe66 (.const:ti_sysbios_heaps_HeapMem_Module__diagsIncluded__C)
                  8037076c    00000004     Disparity_pe66.oe66 (.const:ti_sysbios_heaps_HeapMem_Module__diagsMask__C)
                  80370770    00000004     Disparity_pe66.oe66 (.const:ti_sysbios_heaps_HeapMem_Module__gateObj__C)
                  80370774    00000004     Disparity_pe66.oe66 (.const:ti_sysbios_heaps_HeapMem_Object__count__C)
                  80370778    00000004     Disparity_pe66.oe66 (.const:ti_sysbios_heaps_HeapMem_reqAlign__C)
                  8037077c    00000004     Disparity_pe66.oe66 (.const:ti_sysbios_knl_Clock_A_badThreadType__C)
                  80370780    00000004     Disparity_pe66.oe66 (.const:ti_sysbios_knl_Clock_LM_begin__C)
                  80370784    00000004     Disparity_pe66.oe66 (.const:ti_sysbios_knl_Clock_LM_tick__C)
                  80370788    00000004     Disparity_pe66.oe66 (.const:ti_sysbios_knl_Clock_LW_delayed__C)
                  8037078c    00000004     Disparity_pe66.oe66 (.const:ti_sysbios_knl_Clock_Module_State_clockQ__O)
                  80370790    00000004     Disparity_pe66.oe66 (.const:ti_sysbios_knl_Clock_Module__diagsEnabled__C)
                  80370794    00000004     Disparity_pe66.oe66 (.const:ti_sysbios_knl_Clock_Module__diagsIncluded__C)
                  80370798    00000004     Disparity_pe66.oe66 (.const:ti_sysbios_knl_Clock_Module__diagsMask__C)
                  8037079c    00000004     Disparity_pe66.oe66 (.const:ti_sysbios_knl_Clock_Module__loggerFxn1__C)
                  803707a0    00000004     Disparity_pe66.oe66 (.const:ti_sysbios_knl_Clock_Module__loggerFxn2__C)
                  803707a4    00000004     Disparity_pe66.oe66 (.const:ti_sysbios_knl_Clock_Module__loggerObj__C)
                  803707a8    00000004     Disparity_pe66.oe66 (.const:ti_sysbios_knl_Clock_tickMode__C)
                  803707ac    00000004     Disparity_pe66.oe66 (.const:ti_sysbios_knl_Clock_tickSource__C)
                  803707b0    00000004     Disparity_pe66.oe66 (.const:ti_sysbios_knl_Semaphore_A_badContext__C)
                  803707b4    00000004     Disparity_pe66.oe66 (.const:ti_sysbios_knl_Semaphore_A_noEvents__C)
                  803707b8    00000004     Disparity_pe66.oe66 (.const:ti_sysbios_knl_Semaphore_A_overflow__C)
                  803707bc    00000004     Disparity_pe66.oe66 (.const:ti_sysbios_knl_Semaphore_A_pendTaskDisabled__C)
                  803707c0    00000004     Disparity_pe66.oe66 (.const:ti_sysbios_knl_Semaphore_Instance_State_pendQ__O)
                  803707c4    00000004     Disparity_pe66.oe66 (.const:ti_sysbios_knl_Semaphore_LM_pend__C)
                  803707c8    00000004     Disparity_pe66.oe66 (.const:ti_sysbios_knl_Semaphore_LM_post__C)
                  803707cc    00000004     Disparity_pe66.oe66 (.const:ti_sysbios_knl_Semaphore_Module__diagsEnabled__C)
                  803707d0    00000004     Disparity_pe66.oe66 (.const:ti_sysbios_knl_Semaphore_Module__diagsIncluded__C)
                  803707d4    00000004     Disparity_pe66.oe66 (.const:ti_sysbios_knl_Semaphore_Module__diagsMask__C)
                  803707d8    00000004     Disparity_pe66.oe66 (.const:ti_sysbios_knl_Semaphore_Module__loggerFxn2__C)
                  803707dc    00000004     Disparity_pe66.oe66 (.const:ti_sysbios_knl_Semaphore_Module__loggerFxn4__C)
                  803707e0    00000004     Disparity_pe66.oe66 (.const:ti_sysbios_knl_Semaphore_Module__loggerObj__C)
                  803707e4    00000004     Disparity_pe66.oe66 (.const:ti_sysbios_knl_Swi_LD_end__C)
                  803707e8    00000004     Disparity_pe66.oe66 (.const:ti_sysbios_knl_Swi_LM_begin__C)
                  803707ec    00000004     Disparity_pe66.oe66 (.const:ti_sysbios_knl_Swi_LM_post__C)
                  803707f0    00000004     Disparity_pe66.oe66 (.const:ti_sysbios_knl_Swi_Module__diagsEnabled__C)
                  803707f4    00000004     Disparity_pe66.oe66 (.const:ti_sysbios_knl_Swi_Module__diagsIncluded__C)
                  803707f8    00000004     Disparity_pe66.oe66 (.const:ti_sysbios_knl_Swi_Module__diagsMask__C)
                  803707fc    00000004     Disparity_pe66.oe66 (.const:ti_sysbios_knl_Swi_Module__loggerFxn1__C)
                  80370800    00000004     Disparity_pe66.oe66 (.const:ti_sysbios_knl_Swi_Module__loggerFxn4__C)
                  80370804    00000004     Disparity_pe66.oe66 (.const:ti_sysbios_knl_Swi_Module__loggerObj__C)
                  80370808    00000004     Disparity_pe66.oe66 (.const:ti_sysbios_knl_Swi_Object__count__C)
                  8037080c    00000004     Disparity_pe66.oe66 (.const:ti_sysbios_knl_Task_A_badPriority__C)
                  80370810    00000004     Disparity_pe66.oe66 (.const:ti_sysbios_knl_Task_A_badTaskState__C)
                  80370814    00000004     Disparity_pe66.oe66 (.const:ti_sysbios_knl_Task_A_badThreadType__C)
                  80370818    00000004     Disparity_pe66.oe66 (.const:ti_sysbios_knl_Task_A_badTimeout__C)
                  8037081c    00000004     Disparity_pe66.oe66 (.const:ti_sysbios_knl_Task_A_noPendElem__C)
                  80370820    00000004     Disparity_pe66.oe66 (.const:ti_sysbios_knl_Task_A_sleepTaskDisabled__C)
                  80370824    00000004     Disparity_pe66.oe66 (.const:ti_sysbios_knl_Task_E_deleteNotAllowed__C)
                  80370828    00000004     Disparity_pe66.oe66 (.const:ti_sysbios_knl_Task_E_spOutOfBounds__C)
                  8037082c    00000004     Disparity_pe66.oe66 (.const:ti_sysbios_knl_Task_E_stackOverflow__C)
                  80370830    00000004     Disparity_pe66.oe66 (.const:ti_sysbios_knl_Task_LD_block__C)
                  80370834    00000004     Disparity_pe66.oe66 (.const:ti_sysbios_knl_Task_LD_exit__C)
                  80370838    00000004     Disparity_pe66.oe66 (.const:ti_sysbios_knl_Task_LD_ready__C)
                  8037083c    00000004     Disparity_pe66.oe66 (.const:ti_sysbios_knl_Task_LM_setPri__C)
                  80370840    00000004     Disparity_pe66.oe66 (.const:ti_sysbios_knl_Task_LM_sleep__C)
                  80370844    00000004     Disparity_pe66.oe66 (.const:ti_sysbios_knl_Task_LM_switch__C)
                  80370848    00000004     Disparity_pe66.oe66 (.const:ti_sysbios_knl_Task_Module_State_inactiveQ__O)
                  8037084c    00000004     Disparity_pe66.oe66 (.const:ti_sysbios_knl_Task_Module_State_terminatedQ__O)
                  80370850    00000004     Disparity_pe66.oe66 (.const:ti_sysbios_knl_Task_Module__diagsEnabled__C)
                  80370854    00000004     Disparity_pe66.oe66 (.const:ti_sysbios_knl_Task_Module__diagsIncluded__C)
                  80370858    00000004     Disparity_pe66.oe66 (.const:ti_sysbios_knl_Task_Module__diagsMask__C)
                  8037085c    00000004     Disparity_pe66.oe66 (.const:ti_sysbios_knl_Task_Module__loggerFxn2__C)
                  80370860    00000004     Disparity_pe66.oe66 (.const:ti_sysbios_knl_Task_Module__loggerFxn4__C)
                  80370864    00000004     Disparity_pe66.oe66 (.const:ti_sysbios_knl_Task_Module__loggerObj__C)
                  80370868    00000004     Disparity_pe66.oe66 (.const:ti_sysbios_knl_Task_Object__count__C)
                  8037086c    00000004     Disparity_pe66.oe66 (.const:ti_sysbios_knl_Task_Object__heap__C)
                  80370870    00000004     Disparity_pe66.oe66 (.const:ti_sysbios_knl_Task_allBlockedFunc__C)
                  80370874    00000004     Disparity_pe66.oe66 (.const:ti_sysbios_knl_Task_defaultStackHeap__C)
                  80370878    00000004     Disparity_pe66.oe66 (.const:ti_sysbios_knl_Task_defaultStackSize__C)
                  8037087c    00000004     Disparity_pe66.oe66 (.const:ti_sysbios_knl_Task_numConstructedTasks__C)
                  80370880    00000004     Disparity_pe66.oe66 (.const:ti_sysbios_knl_Task_numPriorities__C)
                  80370884    00000004     Disparity_pe66.oe66 (.const:ti_sysbios_timers_timer64_Timer_A_notAvailable__C)
                  80370888    00000004     Disparity_pe66.oe66 (.const:ti_sysbios_timers_timer64_Timer_E_cannotSupport__C)
                  8037088c    00000004     Disparity_pe66.oe66 (.const:ti_sysbios_timers_timer64_Timer_Module__diagsEnabled__C)
                  80370890    00000004     Disparity_pe66.oe66 (.const:ti_sysbios_timers_timer64_Timer_Module__diagsIncluded__C)
                  80370894    00000004     Disparity_pe66.oe66 (.const:ti_sysbios_timers_timer64_Timer_Module__diagsMask__C)
                  80370898    00000004     Disparity_pe66.oe66 (.const:ti_sysbios_timers_timer64_Timer_anyMask__C)
                  8037089c    00000004     Disparity_pe66.oe66 (.const:ti_sysbios_timers_timer64_Timer_freqDivisor__C)
                  803708a0    00000004     Disparity_pe66.oe66 (.const:ti_sysbios_timers_timer64_Timer_numLocalTimers__C)
                  803708a4    00000004     Disparity_pe66.oe66 (.const:ti_sysbios_timers_timer64_Timer_numTimerDevices__C)
                  803708a8    00000004     Disparity_pe66.oe66 (.const:xdc_runtime_Assert_E_assertFailed__C)
                  803708ac    00000004     Disparity_pe66.oe66 (.const:xdc_runtime_Core_A_initializedParams__C)
                  803708b0    00000004     Disparity_pe66.oe66 (.const:xdc_runtime_Core_Module__diagsEnabled__C)
                  803708b4    00000004     Disparity_pe66.oe66 (.const:xdc_runtime_Core_Module__diagsIncluded__C)
                  803708b8    00000004     Disparity_pe66.oe66 (.const:xdc_runtime_Core_Module__diagsMask__C)
                  803708bc    00000004     Disparity_pe66.oe66 (.const:xdc_runtime_Error_E_memory__C)
                  803708c0    00000004     Disparity_pe66.oe66 (.const:xdc_runtime_Error_Module__diagsEnabled__C)
                  803708c4    00000004     Disparity_pe66.oe66 (.const:xdc_runtime_Error_Module__diagsIncluded__C)
                  803708c8    00000004     Disparity_pe66.oe66 (.const:xdc_runtime_Error_Module__diagsMask__C)
                  803708cc    00000004     Disparity_pe66.oe66 (.const:xdc_runtime_Error_Module__loggerFxn8__C)
                  803708d0    00000004     Disparity_pe66.oe66 (.const:xdc_runtime_Error_Module__loggerObj__C)
                  803708d4    00000004     Disparity_pe66.oe66 (.const:xdc_runtime_Error_policy__C)
                  803708d8    00000004     Disparity_pe66.oe66 (.const:xdc_runtime_Error_raiseHook__C)
                  803708dc    00000004     Disparity_pe66.oe66 (.const:xdc_runtime_IFilterLogger_Interface__BASE__C)
                  803708e0    00000004     Disparity_pe66.oe66 (.const:xdc_runtime_IGateProvider_Interface__BASE__C)
                  803708e4    00000004     Disparity_pe66.oe66 (.const:xdc_runtime_IHeap_Interface__BASE__C)
                  803708e8    00000004     Disparity_pe66.oe66 (.const:xdc_runtime_ILogger_Interface__BASE__C)
                  803708ec    00000004     Disparity_pe66.oe66 (.const:xdc_runtime_IModule_Interface__BASE__C)
                  803708f0    00000004     Disparity_pe66.oe66 (.const:xdc_runtime_Log_L_error__C)
                  803708f4    00000004     Disparity_pe66.oe66 (.const:xdc_runtime_LoggerBuf_E_badLevel__C)
                  803708f8    00000004     Disparity_pe66.oe66 (.const:xdc_runtime_LoggerBuf_Module__gateObj__C)
                  803708fc    00000004     Disparity_pe66.oe66 (.const:xdc_runtime_LoggerBuf_Object__count__C)
                  80370900    00000004     Disparity_pe66.oe66 (.const:xdc_runtime_LoggerBuf_statusLogger__C)
                  80370904    00000004     Disparity_pe66.oe66 (.const:xdc_runtime_Memory_defaultHeapInstance__C)
                  80370908    00000004     Disparity_pe66.oe66 (.const:xdc_runtime_Startup_execImpl__C)
                  8037090c    00000004     Disparity_pe66.oe66 (.const:xdc_runtime_Startup_maxPasses__C)
                  80370910    00000004     Disparity_pe66.oe66 (.const:xdc_runtime_Startup_sfxnRts__C)
                  80370914    00000004     Disparity_pe66.oe66 (.const:xdc_runtime_Startup_sfxnTab__C)
                  80370918    00000004     Disparity_pe66.oe66 (.const:xdc_runtime_System_Module__gateObj__C)
                  8037091c    00000004     Disparity_pe66.oe66 (.const:xdc_runtime_System_extendFxn__C)
                  80370920    00000004     Disparity_pe66.oe66 (.const:xdc_runtime_System_maxAtexitHandlers__C)
                  80370924    00000004     Disparity_pe66.oe66 (.const:xdc_runtime_Text_charTab__C)
                  80370928    00000004     Disparity_pe66.oe66 (.const:xdc_runtime_Text_nameEmpty__C)
                  8037092c    00000004     Disparity_pe66.oe66 (.const:xdc_runtime_Text_nameStatic__C)
                  80370930    00000004     Disparity_pe66.oe66 (.const:xdc_runtime_Text_nameUnknown__C)
                  80370934    00000004     Disparity_pe66.oe66 (.const:xdc_runtime_Text_nodeTab__C)
                  80370938    00000004     Disparity_pe66.oe66 (.const:xdc_runtime_Text_visitRopeFxn__C)
                  8037093c    00000002     Disparity_pe66.oe66 (.const:ti_sysbios_knl_Swi_Module__id__C)
                  8037093e    00000002     Disparity_pe66.oe66 (.const:ti_sysbios_knl_Swi_Module__loggerDefined__C)
                  80370940    00000002     Disparity_pe66.oe66 (.const:ti_sysbios_knl_Task_Module__id__C)
                  80370942    00000002     Disparity_pe66.oe66 (.const:ti_sysbios_knl_Task_Module__loggerDefined__C)
                  80370944    00000002     Disparity_pe66.oe66 (.const:ti_sysbios_knl_Task_deleteTerminatedTasks__C)
                  80370946    00000002     Disparity_pe66.oe66 (.const:ti_sysbios_knl_Task_initStackFlag__C)
                  80370948    00000002     Disparity_pe66.oe66 (.const:ti_sysbios_timers_timer64_Timer_Module__id__C)
                  8037094a    00000002     Disparity_pe66.oe66 (.const:ti_sysbios_timers_timer64_Timer_startupNeeded__C)
                  8037094c    00000002     Disparity_pe66.oe66 (.const:xdc_runtime_Core_Module__id__C)
                  8037094e    00000002     Disparity_pe66.oe66 (.const:xdc_runtime_Error_Module__loggerDefined__C)
                  80370950    00000002     Disparity_pe66.oe66 (.const:xdc_runtime_Error_maxDepth__C)
                  80370952    00000002     Disparity_pe66.oe66 (.const:xdc_runtime_LoggerBuf_Module__id__C)
                  80370954    00000002     Disparity_pe66.oe66 (.const:xdc_runtime_LoggerBuf_filterByLevel__C)
                  80370956    00000002     Disparity_pe66.oe66 (.const:xdc_runtime_Memory_Module__id__C)
                  80370958    00000002     Disparity_pe66.oe66 (.const:xdc_runtime_Text_charCnt__C)
                  8037095a    00000002     Disparity_pe66.oe66 (.const:xdc_runtime_Text_isLoaded__C)
                  8037095c    00000002     Disparity_pe66.oe66 (.const:xdc_runtime_Text_registryModsLastId__C)
                  8037095e    00000002     Disparity_pe66.oe66 (.const:xdc_runtime_Text_unnamedModsLastId__C)

.fardata.1 
*          0    80370960    00000020     
                  80370960    00000020     ti.drv.qmss.ae66 : qmss_drv.oe66 (.fardata:Qmss_highEoiVector)

.qmss      0    80370980    00002400     UNINITIALIZED
                  80370980    00002400     ti.drv.qmss.ae66 : qmss_drv.oe66 (.qmss)

.fardata.2 
*          0    80372d80    0000156a     
                  80372d80    00000600     Disparity_pe66.oe66 (.fardata)
                  80373380    000001e0     rts6600_elf_mt.lib : defs.obj (.fardata:_ftable)
                  80373560    00000180     Disparity_pe66.oe66 (.fardata:ti_sysbios_timers_timer64_Timer_Module_State_0_device__A)
                  803736e0    00000120     resourcemgr.obj (.fardata:qmssGblCfgParams)
                  80373800    000000f0     Disparity_pe66.oe66 (.fardata:ti_sysbios_knl_Task_Object__table__V)
                  803738f0    000000b4     stk6_ppp_pppoe.ae66 : exec.oe66 (.fardata)
                  803739a4    00000004     rts6600_elf_mt.lib : defs.obj (.fardata)
                  803739a8    000000a0                        : lowlev.obj (.fardata:_stream)
                  80373a48    00000080     Disparity_pe66.oe66 (.fardata:ti_sysbios_knl_Swi_Module_State_0_readyQ__A)
                  80373ac8    00000080     Disparity_pe66.oe66 (.fardata:ti_sysbios_knl_Task_Module_State_0_readyQ__A)
                  80373b48    00000080     Disparity_pe66.oe66 (.fardata:ti_sysbios_timers_timer64_Timer_Module_State_0_gctrl__A)
                  80373bc8    00000080     Disparity_pe66.oe66 (.fardata:ti_sysbios_timers_timer64_Timer_Module_State_0_handles__A)
                  80373c48    00000080     Disparity_pe66.oe66 (.fardata:ti_sysbios_timers_timer64_Timer_Module_State_0_intFreqs__A)
                  80373cc8    00000078     rts6600_elf_mt.lib : lowlev.obj (.fardata:_device)
                  80373d40    00000078     resourcemgr.obj (.fardata:cppiGblCfgParams)
                  80373db8    00000078     Disparity_pe66.oe66 (.fardata:ti_sysbios_family_c64p_Hwi_Object__table__V)
                  80373e30    00000050     stk6_ppp_pppoe.ae66 : exec.oe66 (.fardata:tasks)
                  80373e80    0000004d     nettool.ae66 : dhcptags.oe66 (.fardata:DHCPTypeCode)
                  80373ecd    00000003     --HOLE--
                  80373ed0    0000004c     Disparity_pe66.oe66 (.fardata:ti_sysbios_timers_timer64_Timer_Object__table__V)
                  80373f1c    00000004     rts6600_elf_mt.lib : dtor_list.obj (.fardata)
                  80373f20    00000040     netctrl.ae66 : netsrv.oe66 (.fardata:CloseOrder)
                  80373f60    00000040                  : netsrv.oe66 (.fardata:OpenOrder)
                  80373fa0    00000040     stk6_ppp_pppoe.ae66 : md5.oe66 (.fardata:PADDING)
                  80373fe0    00000040     nettool.ae66 : httpsend.oe66 (.fardata:codestr)
                  80374020    00000040     Disparity_pe66.oe66 (.fardata:ti_sysbios_gates_GateMutex_Object__table__V)
                  80374060    00000034     stk6_ppp_pppoe.ae66 : tcp6time.oe66 (.fardata:tcp_backoff)
                  80374094    0000000c     rts6600_elf_mt.lib : _data_synch.obj (.fardata)
                  803740a0    00000034     stk6_ppp_pppoe.ae66 : tcptime.oe66 (.fardata:tcp_backoff)
                  803740d4    00000004     ti.drv.cppi.ae66 : cppi_drv.oe66 (.fardata)
                  803740d8    00000030     Disparity_pe66.oe66 (.fardata:ti_sysbios_knl_Swi_Object__table__V)
                  80374108    00000024     os.ae66 : ossys.oe66 (.fardata)
                  8037412c    00000004     ti.drv.pa.ae66 : painit.oe66 (.fardata)
                  80374130    00000024     Disparity_pe66.oe66 (.fardata:xdc_runtime_LoggerBuf_Object__table__V)
                  80374154    00000004     --HOLE--
                  80374158    00000008     ti.transport.ndk.nimu.ae66 : nimu_eth.obj (.fardata:NIMUDeviceTable)
                  80374160    00000020     stk6_ppp_pppoe.ae66 : rtc.oe66 (.fardata:pstrMsgName)
                  80374180    00000020     Disparity_pe66.oe66 (.fardata:xdc_runtime_System_Module_State_0_atexitHandlers__A)
                  803741a0    0000001c     os.ae66 : mem_data.oe66 (.fardata:ti_ndk_config_Global_Id2Size)
                  803741bc    00000004     --HOLE--
                  803741c0    00000018     Initialise.obj (.fardata:TaskName)
                  803741d8    00000018     rts6600_elf_mt.lib : _pthread.obj (.fardata)
                  803741f0    00000018     Disparity_pe66.oe66 (.fardata:ti_sysbios_heaps_HeapMem_Object__table__V)
                  80374208    00000014     Initialise.obj (.fardata:ReportStr)
                  8037421c    00000004     --HOLE--
                  80374220    00000014     Initialise.obj (.fardata:StatusStr)
                  80374234    00000008     rts6600_elf_mt.lib : _lock.obj (.fardata)
                  8037423c    00000004     --HOLE--
                  80374240    00000014     stk6_ppp_pppoe.ae66 : sock6pcb.oe66 (.fardata:pSockList)
                  80374254    00000008     rts6600_elf_mt.lib : _mutex.obj (.fardata)
                  8037425c    00000004     --HOLE--
                  80374260    00000014     stk6_ppp_pppoe.ae66 : sockpcb.oe66 (.fardata:pSockList)
                  80374274    00000004     --HOLE--
                  80374278    00000010     ti.drv.qmss.ae66 : qmss_drv.oe66 (.fardata:Qmss_lowEoiVector)
                  80374288    00000010     rts6600_elf_mt.lib : exit.obj (.fardata)
                  80374298    00000008     Disparity_pe66.oe66 (.fardata:ti_sysbios_hal_Hwi_Object__table__V)
                  803742a0    0000000b     stk6_ppp_pppoe.ae66 : tcp6out.oe66 (.fardata:tcp_outflags)
                  803742ab    00000005     --HOLE--
                  803742b0    0000000b                         : tcpout.oe66 (.fardata:tcp_outflags)
                  803742bb    00000005     --HOLE--
                  803742c0    00000008     Disparity_pe66.oe66 (.fardata:ti_sysbios_hal_Timer_Object__table__V)
                  803742c8    00000004     Disparity_pe66.oe66 (.fardata:ti_sysbios_gates_GateHwi_Object__table__V)
                  803742cc    00000004     --HOLE--
                  803742d0    00000006     stk6_ppp_pppoe.ae66 : nimupppoe.oe66 (.fardata:MacBCast)
                  803742d6    00000002     --HOLE--
                  803742d8    00000004     Disparity_pe66.oe66 (.fardata:ti_sysbios_knl_Task_Module_State_0_idleTask__A)
                  803742dc    00000004     --HOLE--
                  803742e0    00000006     stk6_ppp_pppoe.ae66 : lliout.oe66 (.fardata:bEtherBCast)
                  803742e6    00000002     --HOLE--
                  803742e8    00000002     ti.drv.qmss.ae66 : qmss_drv.oe66 (.fardata:Qmss_cdmaEoiVector)

platform_lib 
*          0    803742f0    00001370     
                  803742f0    00001058     ti.platform.evm6678l.ae66 : platform.obj (platform_lib:uninit) [fill = 0]
                  80375348    00000210                               : evm66x_nand.obj (platform_lib) [fill = 0]
                  80375558    00000108                               : platform.obj (platform_lib:init)

.switch    0    80375660    000003a8     
                  80375660    00000070     ti.csl.ae66 : csl_chip.oe66 (.switch:CSL_chipReadReg)
                  803756d0    00000060     nettool.ae66 : telnetd.oe66 (.switch:telnet_netdata)
                  80375730    0000003c     stk6_ppp_pppoe.ae66 : sock.oe66 (.switch:SockSet)
                  8037576c    00000038                         : icmpin.oe66 (.switch:ICMPInput)
                  803757a4    00000038                         : icmpv6in.oe66 (.switch:ICMPv6RxPacket)
                  803757dc    00000034                         : rawethsock.oe66 (.switch:RawEthSockSet)
                  80375810    0000002c                         : sock6.oe66 (.switch:Sock6Set)
                  8037583c    0000002c     ti.drv.pa.ae66 : pa.oe66 (.switch:pa_conv_routing_info)
                  80375868    00000028     stk6_ppp_pppoe.ae66 : lcp.oe66 (.switch:lcpInput)
                  80375890    00000020                         : tcp6prot.oe66 (.switch:TCP6PrSetOption)
                  803758b0    00000020                         : tcpprot.oe66 (.switch:TcpPrSetOption)
                  803758d0    00000020                         : ipcp.oe66 (.switch:ipcpInput)
                  803758f0    0000001c                         : sock6int.oe66 (.switch:Sock6Notify)
                  8037590c    0000001c                         : sockint.oe66 (.switch:SockNotify)
                  80375928    0000001c     nettool.ae66 : dhcpsm.oe66 (.switch:dhcpState)
                  80375944    0000001c     ti.platform.evm6678l.ae66 : platform.obj (.switch:platform_internal_memory_test)
                  80375960    00000018     stk6_ppp_pppoe.ae66 : nimuppp.oe66 (.switch:pppEvent)
                  80375978    00000014                         : icmpv6in.oe66 (.switch:ICMPv6RecvDstUnreachable)
                  8037598c    00000014                         : lli6.oe66 (.switch:LLI6TimerCheck)
                  803759a0    00000014                         : nimu.oe66 (.switch:NIMUIoctl)
                  803759b4    00000014                         : lcp.oe66 (.switch:lcpSendCfg)
                  803759c8    00000010                         : auth.oe66 (.switch:chapInput)
                  803759d8    00000010     nettool.ae66 : inetaddr.oe66 (.switch:inet_aton)
                  803759e8    00000010     stk6_ppp_pppoe.ae66 : ipcp.oe66 (.switch:ipcpSendCfg)
                  803759f8    00000010                         : nimupppoe.oe66 (.switch:pppoeCtrlMsg)

.bss       0    80375a08    0000006c     UNINITIALIZED
                  80375a08    00000018     hal_timer_bios.ae66 : lltimer.oe66 (.bss)
                  80375a20    00000014     stk6_ppp_pppoe.ae66 : igmp.oe66 (.bss)
                  80375a34    0000000c     ti.transport.ndk.nimu.ae66 : nimu_eth.obj (.bss)
                  80375a40    00000008     netctrl.ae66 : netctrl.oe66 (.bss)
                  80375a48    00000008     nettool.ae66 : daemon.oe66 (.bss)
                  80375a50    00000008     stk6_ppp_pppoe.ae66 : ip.oe66 (.bss)
                  80375a58    00000008                         : nimupppoe.oe66 (.bss)
                  80375a60    00000004     nettool.ae66 : ipaddr.oe66 (.bss)
                  80375a64    00000004     stk6_ppp_pppoe.ae66 : ipv6_frag.oe66 (.bss)
                  80375a68    00000004                         : lli6.oe66 (.bss)
                  80375a6c    00000004                         : rtable.oe66 (.bss)
                  80375a70    00000004     ti.platform.evm6678l.ae66 : evmc66x_spi.obj (.bss)

.neardata 
*          0    80375a74    000001a1     
                  80375a74    00000044     nettool.ae66 : httpstr.oe66 (.neardata)
                  80375ab8    00000024     os.ae66 : mem.oe66 (.neardata)
                  80375adc    00000020     Initialise.obj (.neardata)
                  80375afc    00000018     netctrl.ae66 : netctrl.oe66 (.neardata)
                  80375b14    00000018     os.ae66 : task.oe66 (.neardata)
                  80375b2c    00000014     stk6_ppp_pppoe.ae66 : rtable.oe66 (.neardata)
                  80375b40    00000010     nettool.ae66 : daemon.oe66 (.neardata)
                  80375b50    00000010     stk6_ppp_pppoe.ae66 : bind6.oe66 (.neardata)
                  80375b60    00000010                         : igmp.oe66 (.neardata)
                  80375b70    0000000c                         : route6.oe66 (.neardata)
                  80375b7c    00000008                         : exec.oe66 (.neardata)
                  80375b84    00000008                         : icmp.oe66 (.neardata)
                  80375b8c    00000008                         : ip.oe66 (.neardata)
                  80375b94    00000008                         : ipin.oe66 (.neardata)
                  80375b9c    00000008                         : ipv6_frag.oe66 (.neardata)
                  80375ba4    00000008                         : lli.oe66 (.neardata)
                  80375bac    00000008                         : nimupppoe.oe66 (.neardata)
                  80375bb4    00000008                         : rtc.oe66 (.neardata)
                  80375bbc    00000008                         : tcp.oe66 (.neardata)
                  80375bc4    00000008                         : tcp6.oe66 (.neardata)
                  80375bcc    00000008                         : timer.oe66 (.neardata)
                  80375bd4    00000008     ti.platform.evm6678l.ae66 : platform.obj (.neardata)
                  80375bdc    00000004     hal_timer_bios.ae66 : lltimer.oe66 (.neardata)
                  80375be0    00000004     netctrl.ae66 : netsrv.oe66 (.neardata)
                  80375be4    00000004     nettool.ae66 : config.oe66 (.neardata)
                  80375be8    00000004                  : httpsend.oe66 (.neardata)
                  80375bec    00000004     os.ae66 : efs.oe66 (.neardata)
                  80375bf0    00000004     stk6_ppp_pppoe.ae66 : bind.oe66 (.neardata)
                  80375bf4    00000004                         : ipfrag.oe66 (.neardata)
                  80375bf8    00000004                         : lli6.oe66 (.neardata)
                  80375bfc    00000004                         : mld.oe66 (.neardata)
                  80375c00    00000004                         : node.oe66 (.neardata)
                  80375c04    00000004                         : pbm.oe66 (.neardata)
                  80375c08    00000004                         : sock6pcb.oe66 (.neardata)
                  80375c0c    00000004                         : sockpcb.oe66 (.neardata)
                  80375c10    00000002     ti.transport.ndk.nimu.ae66 : nimu_eth.obj (.neardata)
                  80375c12    00000002     --HOLE-- [fill = 0]
                  80375c14    00000001     ti.drv.qmss.ae66 : qmss_drv.oe66 (.neardata)

.rodata    0    80375c18    0000003c     
                  80375c18    00000024     stk6_ppp_pppoe.ae66 : ipv6.oe66 (.rodata)
                  80375c3c    00000010     os.ae66 : mem_data.oe66 (.rodata)
                  80375c4c    00000008     stk6_ppp_pppoe.ae66 : pbm_data.oe66 (.rodata)

.cppi      0    80375c80    00000200     UNINITIALIZED
                  80375c80    00000200     ti.drv.cppi.ae66 : cppi_drv.oe66 (.cppi)

.cio       0    80375e80    00000120     UNINITIALIZED
                  80375e80    00000120     rts6600_elf_mt.lib : trgmsg.obj (.cio)

.vecs      0    80376000    00000200     
                  80376000    00000200     Disparity_pe66.oe66 (.vecs)

.cinit     0    80376200    000010d8     
                  80376200    00000e4c     (.cinit..fardata.2.load) [load image, compression = rle]
                  8037704c    0000009f     (.cinit.platform_lib.load) [load image, compression = rle]
                  803770eb    00000001     --HOLE-- [fill = 0]
                  803770ec    0000008a     (.cinit..neardata.load) [load image, compression = rle]
                  80377176    00000002     --HOLE-- [fill = 0]
                  80377178    00000040     (.cinit..rodata.load) [load image, compression = rle]
                  803771b8    00000026     (.cinit..fardata.1.load) [load image, compression = rle]
                  803771de    00000002     --HOLE-- [fill = 0]
                  803771e0    0000000c     (__TI_handler_table)
                  803771ec    0000000b     (.cinit..nimu_eth_ll2.load) [load image, compression = rle]
                  803771f7    00000001     --HOLE-- [fill = 0]
                  803771f8    00000008     (.cinit..bss.load) [load image, compression = zero_init]
                  80377200    00000008     (.cinit..cppi.load) [load image, compression = zero_init]
                  80377208    00000008     (.cinit..far.1.load) [load image, compression = zero_init]
                  80377210    00000008     (.cinit..far.2.load) [load image, compression = zero_init]
                  80377218    00000008     (.cinit..far:NDK_PACKETMEM.load) [load image, compression = zero_init]
                  80377220    00000008     (.cinit..far:taskStackSection.load) [load image, compression = zero_init]
                  80377228    00000008     (.cinit..qmss.load) [load image, compression = zero_init]
                  80377230    00000008     (.cinit..resmgr_handles.load) [load image, compression = zero_init]
                  80377238    00000008     (.cinit..resmgr_memregion.load) [load image, compression = zero_init]
                  80377240    00000008     (.cinit..resmgr_pa.load) [load image, compression = zero_init]
                  80377248    00000008     (.cinit.systemHeap.load) [load image, compression = zero_init]
                  80377250    00000088     (__TI_cinit_table)


LINKER GENERATED COPY TABLES

__TI_cinit_table @ 80377250 records: 17, size/record: 8, table size: 136
	.fardata.2: load addr=80376200, load size=00000e4c bytes, run addr=80372d80, run size=0000156a bytes, compression=rle
	platform_lib: load addr=8037704c, load size=0000009f bytes, run addr=803742f0, run size=00001370 bytes, compression=rle
	.neardata: load addr=803770ec, load size=0000008a bytes, run addr=80375a74, run size=000001a1 bytes, compression=rle
	.rodata: load addr=80377178, load size=00000040 bytes, run addr=80375c18, run size=0000003c bytes, compression=rle
	.fardata.1: load addr=803771b8, load size=00000026 bytes, run addr=80370960, run size=00000020 bytes, compression=rle
	.nimu_eth_ll2: load addr=803771ec, load size=0000000b bytes, run addr=0085cc00, run size=00000318 bytes, compression=rle
	.bss: load addr=803771f8, load size=00000008 bytes, run addr=80375a08, run size=0000006c bytes, compression=zero_init
	.cppi: load addr=80377200, load size=00000008 bytes, run addr=80375c80, run size=00000200 bytes, compression=zero_init
	.far.1: load addr=80377208, load size=00000008 bytes, run addr=80358ee0, run size=0000dbc8 bytes, compression=zero_init
	.far.2: load addr=80377210, load size=00000008 bytes, run addr=80366ab0, run size=00000060 bytes, compression=zero_init
	.far:NDK_PACKETMEM: load addr=80377218, load size=00000008 bytes, run addr=00800000, run size=00052b00 bytes, compression=zero_init
	.far:taskStackSection: load addr=80377220, load size=00000008 bytes, run addr=00856b00, run size=00003c00 bytes, compression=zero_init
	.qmss: load addr=80377228, load size=00000008 bytes, run addr=80370980, run size=00002400 bytes, compression=zero_init
	.resmgr_handles: load addr=80377230, load size=00000008 bytes, run addr=0085cf20, run size=000000a0 bytes, compression=zero_init
	.resmgr_memregion: load addr=80377238, load size=00000008 bytes, run addr=00852b00, run size=00004000 bytes, compression=zero_init
	.resmgr_pa: load addr=80377240, load size=00000008 bytes, run addr=0085a700, run size=00001488 bytes, compression=zero_init
	systemHeap: load addr=80377248, load size=00000008 bytes, run addr=80000000, run size=00300000 bytes, compression=zero_init


LINKER GENERATED HANDLER TABLE

__TI_handler_table @ 803771e0 records: 3, size/record: 4, table size: 12
	index: 0, handler: __TI_zero_init
	index: 1, handler: __TI_decompress_rle24
	index: 2, handler: __TI_decompress_none


GLOBAL SYMBOLS: SORTED ALPHABETICALLY BY Name 

address    name
--------   ----
80300d98   Add_MACAddress
80340a40   Bind6DADCheck
80356440   Bind6FindByHost
80354100   Bind6FindByIF
80356480   Bind6FindByNet
803321c0   Bind6Free
8033d280   Bind6GetGlobalAddress
80357900   Bind6GetInterfaceHandle
80357920   Bind6GetLifetime
80348740   Bind6GetLinkLocalAddress
80354160   Bind6IF2IPHost
8033b060   Bind6Msg
80319a20   Bind6New
80357940   Bind6SetLifetime
803541c0   BindFindByHost
80354220   BindFindByIF
80354280   BindFindByNet
80343c20   BindFree
80357960   BindGetFirst
80357980   BindGetIF
803542e0   BindGetIFByDBCast
803564c0   BindGetIP
803579a0   BindGetNext
80354340   BindIF2IPHost
803579c0   BindIFNet2IPHost
803579e0   BindIPHost2IF
8032bd00   BindNew
80366850   BlockCount
80366830   BlockMax
803368c4   ByteArrayToInt32
803582e0   C$$EXIT
80353d58   C$$IO$$
80375aa4   CONTENT_LENGTH
80375aa0   CONTENT_TYPE
80375a74   CONTENT_TYPE_APPLET
80375a78   CONTENT_TYPE_AU
80375a7c   CONTENT_TYPE_CSS
80375a80   CONTENT_TYPE_DOC
80375a84   CONTENT_TYPE_GIF
80375a88   CONTENT_TYPE_HTML
80375a8c   CONTENT_TYPE_JPG
80375a90   CONTENT_TYPE_MPEG
80375a94   CONTENT_TYPE_PDF
80375a98   CONTENT_TYPE_WAV
80375a9c   CONTENT_TYPE_ZIP
80375aa8   CRLF
80340b80   CSL_chipReadReg
803281a0   CfgAddEntry
8034e480   CfgEntryDeRef
8034e520   CfgEntryGetData
803543a0   CfgEntryInfo
803390e0   CfgExecute
80343d40   CfgFree
8033ec00   CfgGetEntry
80348820   CfgGetEntryCnt
8034e5c0   CfgGetImmediate
8033ed60   CfgGetNextEntry
80346a40   CfgNew
8033b200   CfgRemoveEntry
80357a00   CfgSetDefault
80346b40   CfgSetExecuteOrder
80354400   CfgSetService
8036fde0   Code2Err
803037e0   Convert_CoreLocal2GlobalAddr
8030e80c   CorePllcGetHwSetup
8030e5d4   CorePllcHwSetup
803392a0   Cppi_channelClose
8034e7a0   Cppi_channelEnable
80314d80   Cppi_configureRxFlow
80357a20   Cppi_init
80339460   Cppi_initCfg
80321860   Cppi_initDescriptor
80332640   Cppi_open
8031e300   Cppi_rxChannelOpen
80351900   Cppi_setCpdmaLoopback
8031c340   Cppi_txChannelOpen
8030e390   DDR3Init
80375aac   DEFAULT_NAME
80348900   DHCPClose
8032c800   DHCPOpen
80375af4   DNSServer
80343e60   DaemonFree
80332880   DaemonNew
80346c40   DbgPrintf
80375af0   DomainName
80310ac4   EVM_init
80301578   EmacRxPktISR
80356500   ExecClose
80357a40   ExecHRef
80357a60   ExecLowResource
80340cc0   ExecOpen
80356540   ExecTimer
8034e840   FdSignalEvent
80343f80   FdWaitEvent
80375aec   GatewayIP
80316c60   GetDisparityMapInline
80351a00   HOSTclose
803489e0   HOSTlseek
80348ac0   HOSTopen
8034bd80   HOSTread
8033d580   HOSTrename
8034e8e0   HOSTunlink
8034be40   HOSTwrite
80375ab0   HTTP_VER
80375ae0   HostName
80351a80   ICMPChecksum
8032e780   ICMPGenPacket
80318960   ICMPInput
80340e00   ICMPSendRtAdv
80332ac0   ICMPv6RecvNA
80326ae0   ICMPv6RecvNS
803146e0   ICMPv6RecvRA
80351b80   ICMPv6RecvRS
80325a00   ICMPv6RecvRedirect
80323660   ICMPv6RxPacket
80325d60   ICMPv6SendDstUnreachable
80332d00   ICMPv6SendNA
80332f40   ICMPv6SendNS
80326e20   ICMPv6SendParameterProblem
80327160   ICMPv6SendTimeExceeded
803260c0   IGMPInput
80340f40   IGMPJoin
80348c80   IGMPLeave
803440a0   IGMPLeaveHostGroup
8033d700   IGMPMsg
80354520   IGMPTestGroup
80375c38   INFINITE_LT
80354580   IPChecksum
80339620   IPGetRoute
803441c0   IPMsg
80317820   IPReasm
8034e980   IPReasmFree
8034ea20   IPReasmTimeout
80357a80   IPRtChange
8030aaa0   IPRxPacket
8030cc00   IPTxPacket
80366508   IPV6_ALL_NODES_ADDRESS
80366518   IPV6_ALL_ROUTER_ADDRESS
80375c24   IPV6_DELAY_FIRST_PROBE_TIME
803664f8   IPV6_HOST_MASK
803664b8   IPV6_LINKLOCALMASK
803664e8   IPV6_LOOPBACK_ADDRESS
80375c18   IPV6_MAX_MULTICAST_SOLICIT
80375c34   IPV6_MAX_RTR_SOLICITATIONS
80375c2c   IPV6_MAX_RTR_SOLICITATION_DELAY
80375c1c   IPV6_MAX_UNICAST_SOLICIT
803664c8   IPV6_MULTICASTMASK
80375c28   IPV6_REACHABLE_TIME
80375c20   IPV6_RETRANS_TIME
80375c30   IPV6_RTR_SOLICITATION_INTERVAL
803664d8   IPV6_UNSPECIFIED_ADDRESS
8034eac0   IPv6CompareAddress
80341080   IPv6DisplayIPAddress
8033b540   IPv6FragMsg
80351c80   IPv6GetRoute
80346e40   IPv6GetSubnetMaskFromBits
80319f80   IPv6IPAddressToString
80344520   IPv6Init
80356580   IPv6IsLinkLocal
803565c0   IPv6IsMulticast
80348e40   IPv6Layer4ComputeChecksum
8032a040   IPv6ParseExtnHeaders
80334ea0   IPv6ParseFragHdr
803302e0   IPv6RxPacket
803210a0   IPv6TxFragPacket
80321c20   IPv6TxPacket
80300b64   Init_Cpsw
80300a30   Init_MAC
80300a2c   Init_MDIO
803009e4   Init_PASS
803292b0   Init_SGMII
80300908   Init_Switch
80344640   IsICMPv6ErrorPkt
80357aa0   LED_TOGGLE
80351d00   LLI6Free
80357ac0   LLI6GetNetDevice
80357ae0   LLI6IncRefCount
80357b00   LLI6IsDead
80357b20   LLI6IsRouter
80356600   LLI6IsValid
80348f20   LLI6Msg
80336c20   LLI6New
80357b40   LLI6SetIncomplete
8032ec80   LLI6TxIPPacket
80349000   LLI6Update
803545e0   LLIFree
803397e0   LLIGenArpPacket
8034bfc0   LLIGetValidTime
8034c080   LLIMsg
80341300   LLINew
8031c800   LLIRxPacket
80326780   LLITxIpPacket
8034eb60   LLIValidateRoute
80375ae4   LocalIPAddr
80375ae8   LocalIPMask
8034ec00   MD5Final
80356640   MD5Init
80344760   MD5Update
80344880   MLDJoinGroup
8034c200   MLDLeaveGroup
80356680   MLDTestGroup
803566c0   NC_BootComplete
80357b60   NC_IPUpdate
8033b880   NC_NetStart
80357b80   NC_NetStop
80354640   NC_SystemClose
803449a0   NC_SystemOpen
80356700   NDK_hookCreate
80357ba0   NDK_hookInit
80356740   NDK_sprintf
80357880   NDK_vsprintf
80344ac0   NIMUAddEthernetHeader
803546a0   NIMUAddHeader
80354700   NIMUCreatePacket
80374158   NIMUDeviceTable
80354760   NIMUFindByIndex
8034c2c0   NIMUFindByName
80357bc0   NIMUGetRsvdSizeInfo
80351e00   NIMUInit
80323a00   NIMUIoctl
803547c0   NIMUPacketService
80354820   NIMUPacketServiceCheck
80330540   NIMUReceivePacket
8033d880   NIMURegister
80354880   NIMUSendPacket
80357be0   NIMUSetRsvdSizeInfo
8034eca0   NIMUShutdown
8034ed40   NIMUUnregister
8034c380   NS_BootTask
803548e0   NS_PreBoot
8030c084   NandGetDetails
8030b6b0   NandReadSpareArea
8030b770   NandWriteDataBytes
8030bfa8   NandWriteSpareArea
80357c00   NatMsg
8032bfc0   NodeAdd
80349380   NodeDeRef
80341440   NodeFind
80354940   NodeGetRt
80357c20   NodeSetRt
8033ba20   NodeTreeFree
80349540   NodeTreeNew
80341580   NodeWalk
80357c40   NotifyLowResource
8034ede0   NtAddNetwork
8034c500   NtIfIdx2Ip
80356780   NtRemoveNetwork
80357c60   OEMCacheClean
80357c80   OEMSysCritOff
80357ca0   OEMSysCritOn
8032fdf8   Osal_cppiBeginMemAccess
8032fdb4   Osal_cppiCsEnter
8032fda4   Osal_cppiCsExit
8032fda0   Osal_cppiEndMemAccess
8032fd80   Osal_cppiFree
8032fd48   Osal_cppiMalloc
8032fd28   Osal_nimuFree
8032fcf0   Osal_nimuMalloc
8032fcec   Osal_paBeginMemAccess
8032fce8   Osal_paEndMemAccess
8032fce4   Osal_paMtCsEnter
8032fce0   Osal_paMtCsExit
8032fcc0   Osal_platformFree
8032fc84   Osal_platformMalloc
8032fc48   Osal_platformSpiCsEnter
8032fc34   Osal_platformSpiCsExit
8032fc30   Osal_qmssBeginMemAccess
8032fbf4   Osal_qmssCsEnter
8032fbe4   Osal_qmssCsExit
8032fbe0   Osal_qmssEndMemAccess
8032fbc0   Osal_qmssFree
8032fb88   Osal_qmssMalloc
8032fb84   Osal_qmssMtCsEnter
8032fb80   Osal_qmssMtCsExit
80351e80   PBMQ_deq
80349620   PBMQ_enq
80366b04   PBMQ_free
803416c0   PBM_alloc
80357cc0   PBM_close
80349700   PBM_copy
80341800   PBM_free
8034ee80   PBM_open
80375ab8   PITCount
80375ac0   PITHigh
80375abc   PITUsed
80313240   Pa_addMac
803274a0   Pa_create
8033bbc0   Pa_downloadImage
8032a600   Pa_forwardResult
80351f80   Pa_getBufferReq
80333180   Pa_resetControl
80366890   PageCount
80366870   PageMax
8034ef20   PipeCheck
80352000   PipeClose
803333c0   PipeRecv
8033f2e0   PipeSend
8030e278   PowerUpDomains
80309d0c   QMSS_QPOP
80309bb0   QMSS_QPUSH
80309a4c   QMSS_QPUSHDESCSIZE
803567c0   Qmss_ackInterrupt
803742e8   Qmss_cdmaEoiVector
80344be0   Qmss_disableAccumulator
80356800   Qmss_getMemRegDescSize
80352080   Qmss_getMemRegQueueHandle
80357ce0   Qmss_getQueueNumber
80370960   Qmss_highEoiVector
803277e0   Qmss_init
80310b80   Qmss_insertMemoryRegion
80374278   Qmss_lowEoiVector
80337020   Qmss_programAccumulator
8034efc0   Qmss_queueClose
80352100   Qmss_queueOpen
8034c5c0   Qmss_setEoiVector
80357d00   Qmss_start
8034f060   Qmss_startCfg
80354a00   RTCAddHook
80347040   RTCMsg
80354a60   RTCRemoveHook
80337220   RTCReport
80339b60   Raw6Input
803350c0   Raw6Output
80344d00   RawEthRxPacket
80347140   RawEthSockCheck
80352180   RawEthSockClose
803352e0   RawEthSockNew
803497e0   RawEthSockNotify
803498c0   RawEthSockPcbAttach
80354ac0   RawEthSockPcbCleanup
80352200   RawEthSockPcbDetach
80354b20   RawEthSockPcbFind
80356840   RawEthSockPcbInit
80357d20   RawEthSockPrAttach
80357d40   RawEthSockPrDetach
803499a0   RawEthSockSend
803307a0   RawEthSockSet
80344e20   RawEthTxPacket
80333600   RawInput
8033f440   RawOutput
803369a4   ReceiveImage
80336914   ReceiveInt32
80349a80   Route6Msg
8034f100   RouteMsg
803153e0   Rt6Create
8032a8e0   Rt6Find
8034c680   Rt6FindDefaultRouter
8032caa0   Rt6Free
80357d60   Rt6GetIF
80357d80   Rt6GetLLI
80357da0   Rt6GetMTU
80354b80   Rt6GetNetworkAddr
80357dc0   Rt6IncRefCount
803568c0   Rt6IsDefaultRoute
80357de0   Rt6IsLocalRoute
80338000   Rt6Modify
80352280   Rt6Update
80323da0   RtCreate
80349b60   RtDeRef
8032cd40   RtFind
80347240   RtRedirect
80349c40   RtRemove
80352300   RtSetFailure
80352380   RtSetTimeout
8034c740   RtWalkBegin
80354be0   RtWalkEnd
8033f700   RtWalkNext
8034c800   SB6Flush
8034f240   SB6Free
80341a80   SB6New
8032c280   SB6Read
8034c8c0   SB6SetMax
80330a00   SB6Write
8034c980   SBFlush
8034f2e0   SBFree
80344f40   SBNew
80324140   SBRead
80349d20   SBSetMax
80330c60   SBWrite
80375ab4   SPACE
8034f380   SemCreate
8034f420   SemCreateBinary
80357e00   SemDelete
80357e20   SemPend
80357e40   SemPost
80357e60   SemReset
80336854   SendImage
80336834   SendInt32
80336820   SendRequestForDimensions
8030e18c   SetDDR3PllConfig
8030e084   SetPaPllConfig
80300508   Setup_Rx
8030026c   Setup_Tx
80341d00   Sock6Accept
80352400   Sock6Bind
8033f9c0   Sock6Check
8034f4c0   Sock6CleanPcb
8032cfe0   Sock6Close
8031a4e0   Sock6Connect
8033dd00   Sock6CreatePacket
803452a0   Sock6Disconnect
8034f560   Sock6GetName
8034ca40   Sock6IntAbort
80341e40   Sock6Listen
8031e740   Sock6New
80324880   Sock6Notify
80356900   Sock6PcbAttach
80329460   Sock6PcbBind
80352480   Sock6PcbCleanup
8033fb20   Sock6PcbConnect
80354ca0   Sock6PcbDetach
8032b180   Sock6PcbResolve
8034cb00   Sock6PcbResolveChain
8034cbc0   Sock6PcbRtChange
80357e80   Sock6PrAttach
80354d00   Sock6PrCtlError
80354d60   Sock6PrDetach
8031cca0   Sock6Recv
803204a0   Sock6Send
80313960   Sock6Set
80357ea0   Sock6SetOOBData
80356940   Sock6SetOOBMark
803453c0   Sock6Shutdown
80349e00   Sock6SpawnAbort
80349ee0   Sock6ValidateRoute
80341f80   SockAccept
8034f600   SockBind
8033fc80   SockCheck
8034f6a0   SockCleanPcb
8032d280   SockClose
80324c00   SockConnect
8033bf00   SockCreatePacket
80349fc0   SockDisconnect
80352500   SockGetName
8034cc80   SockIntAbort
803420c0   SockListen
8031aa20   SockNew
80324f80   SockNotify
80356980   SockPcbAttach
80330ec0   SockPcbBind
80352580   SockPcbCleanup
8033fde0   SockPcbConnect
80342200   SockPcbCtlError
80352600   SockPcbDetach
8032d520   SockPcbResolve
8034f740   SockPcbResolveChain
8034cd40   SockPcbRtChange
80357ec0   SockPrAttach
80354dc0   SockPrCtlError
80354e20   SockPrDetach
8031d140   SockRecv
803223a0   SockSend
80311b40   SockSet
80357ee0   SockSetOOBData
803569c0   SockSetOOBMark
80345600   SockShutdown
8034a0a0   SockSpawnAbort
80347340   SockValidateRoute
80310360   StackTest
80300224   Switch_update_addr
8034ce00   TCP6Close
8034f7e0   TCP6Drop
80331120   TCP6GenPacket
80303860   TCP6Input
80307e60   TCP6Output
80345720   TCP6PrAttach
80354e80   TCP6PrConnect
8034f880   TCP6PrCtlError
8034a180   TCP6PrDetach
8034a260   TCP6PrDisconnect
80347540   TCP6PrInherit
80352680   TCP6PrListen
80357f00   TCP6PrRecv
8034f920   TCP6PrSend
8034f9c0   TCP6PrSendOOB
8032d7c0   TCP6PrSetOption
80354ee0   TCP6SetPersist
80357f20   TCP6TimeoutAdd
80322760   TCP6TimeoutCheck
803400a0   TCP6TimeoutKeep
80354f40   TCP6TimeoutPersist
80356a00   TCP6TimeoutRemove
8033c240   TCP6TimeoutRexmt
8034cec0   TCP6TimeoutSackRexmt
80356a40   TCP6TimeoutWait2
8034a340   TCP6ValidateMetrics
80347640   TCP6XmitTimer
803738a0   TSK_idle
80357f40   TaskBlock
8034fa60   TaskCreate
80356a80   TaskDestroy
80334800   TaskExit
8034cf80   TaskGetEnv
80357f60   TaskSelf
80352700   TaskSetEnv
80357f80   TaskSetPri
80320080   TaskSleep
8034d040   TcpChecksum
8034d100   TcpClose
8034fb00   TcpDrop
80333840   TcpGenPacket
80305240   TcpInput
80306c20   TcpOutput
80345840   TcpPrAttach
80354fa0   TcpPrConnect
8034fba0   TcpPrCtlError
8034a420   TcpPrDetach
8034a500   TcpPrDisconnect
80347740   TcpPrInherit
80352780   TcpPrListen
80357fa0   TcpPrRecv
8034fc40   TcpPrSend
8034fce0   TcpPrSendOOB
8032da60   TcpPrSetOption
80355000   TcpSetPersist
80357fc0   TcpTimeoutAdd
80322b20   TcpTimeoutCheck
80340200   TcpTimeoutKeep
80355060   TcpTimeoutPersist
80356ac0   TcpTimeoutRemove
80339ee0   TcpTimeoutRexmt
8034d1c0   TcpTimeoutSackRexmt
80356b00   TcpTimeoutWait2
8034a5e0   TcpValidateMetrics
80347840   TcpXmitTimer
80343e60   TelnetClose
80345960   TelnetOpen
80357fe0   TimerFree
80352800   TimerHSTick
8034fd80   TimerNew
8033a864   UartInit
8033a848   UartIsDataReady
8033a814   UartReadBaudRate
8033a808   UartReadData
8033a7e0   UartSetBaudRate
8033a7a0   UartWriteData
80329760   Udp6Input
8032ef00   Udp6Output
8034a7a0   UdpChecksum
8031b980   UdpInput
8032b460   UdpOutput
8034a880   VLANDeinit
80355180   VLANInit
8034a960   VLANReceivePacket
80375adc   VerStr
80300078   Verify_Init
80366700   _ICMPIn
80375b84   _ICMPInErrors
80366750   _ICMPOut
80375b88   _ICMPOutErrors
80375b68   _IGMPForceVersion1
80375a20   _IGMPInDiscard
80375a24   _IGMPInQuery
80375a28   _IGMPInQueryGroup
80375a2c   _IGMPInResponse
80375a30   _IGMPOutResponse
80375b8c   _IPExecuting
80375bf4   _IPReasmPtr
8034ab20   _LLIExpListInsert
80352980   _LLIExpListRemove
8033a0a0   _LLITimeoutCheck
8034fec0   _LLITimeoutFlush
8034ac00   _RtExpListInsert
80352a80   _RtExpListRemove
80345a80   _RtNodeInsert
80347940   _RtNodeRemove
80358000   _TaskInit
80358020   _TaskShutdown
80000000   __ASM__
80375e80   __CIOBUF_
80000070   __ISA__
80000088   __PLAT__
800000b0   __TARG__
80377250   __TI_CINIT_Base
803772d8   __TI_CINIT_Limit
803771e0   __TI_Handler_Table_Base
803771ec   __TI_Handler_Table_Limit
UNDEFED    __TI_INITARRAY_Base
UNDEFED    __TI_INITARRAY_Limit
0085cb88   __TI_STACK_END
00001000   __TI_STACK_SIZE
80375a08   __TI_STATIC_BASE
00000001   __TI_args_main
80358040   __TI_data_synch_INV
80356b40   __TI_data_synch_WB
80356b80   __TI_data_synch_WBINV
80358380   __TI_decompress_none
803583a0   __TI_decompress_rle24
80374294   __TI_enable_exit_profile_output
ffffffff   __TI_pprof_out_hndl
ffffffff   __TI_prof_data_size
ffffffff   __TI_prof_data_start
80352b00   __TI_resource_lock
80356bc0   __TI_resource_unlock
8034af80   __TI_zero_init
800000d8   __TRDR__
ffffffff   __binit__
80356c80   __c6xabi_call_stub
80317de0   __c6xabi_divd
8032f180   __c6xabi_divf
8034d4c0   __c6xabi_divu
8033c3e0   __c6xabi_divul
80333a80   __c6xabi_divull
80355240   __c6xabi_frcmpyd_div
80356c00   __c6xabi_isinf
80352b80   __c6xabi_llshl
803552a0   __c6xabi_llshru
80358060   __c6xabi_negll
803580c0   __c6xabi_pop_rts
803580e0   __c6xabi_push_rts
8034d580   __c6xabi_remi
80350000   __c6xabi_remu
80356cc0   __c6xabi_strasgi_64plus
ffffffff   __c_args__
80356c80   __call_stub
80358080   __cxa_atexit
8034d400   __cxa_finalize
803580a0   __cxa_ia64_exit
8034d4c0   __divu
803580c0   __pop_rts
803580e0   __push_rts
8034d580   __remi
80350000   __remu
80356cc0   __strasgi_64plus
80358100   __xdc__init
8037337c   __xdc__init__addr
80356d00   _args_main
00000000   _argsize
80342340   _auto_init_elf
803500a0   _c_int00
80350140   _cleanup
8037428c   _cleanup_ptr
80345ba0   _closefile
8036ef80   _ctypes_
80374288   _delete_mutexes_ptr
8034d640   _doflush
80374290   _dtors_ptr
803739a4   _ft_end
80373380   _ftable
803738f0   _ipcfg
80358120   _llSerialInit
80358140   _llSerialServiceCheck
80358160   _llSerialShutdown
80356d40   _llTimerInit
80358180   _llTimerShutdown
803581a0   _llUserLedInit
803581c0   _llUserLedShutdown
80374234   _lock
80345de0   _mmInit
803581e0   _nop
80374108   _oscfg
8031d5e0   _printfi
80358260   _register_lock
80358280   _register_unlock
0085bb88   _stack
80355300   _subcull
80366070   _tmpnams
80374238   _unlock
80347a40   _wrt_ok
803582e0   abort
8036d768   acc48_le
80337820   accept
80358300   atexit
8034adc0   atoi
80340360   authInit
803503c0   authStart
8033e180   bind
ffffffff   binit
80366b10   c1
8036b780   c2
8031eb80   chapInput
8034aea0   close
80329140   configSerdes
80366a00   coreKey
80373d40   cppiGblCfgParams
803740d4   cppiLObj
80375c80   cppiObject
80337a20   cppi_internal_heap_add
80352c80   cppi_internal_heap_cache_begin
80358320   cppi_internal_heap_free
80350460   cppi_internal_heap_malloc
80355360   cppi_list_add
803553c0   cppi_list_cache_invalidate
80350500   cppi_list_cat
80358340   cppi_list_get_head
80358360   cppi_list_get_next
80352d00   cppi_list_remove
8034d700   cppi_list_remove_node
803505a0   dhcpBuildDecline
803554e0   dhcpBuildDiscover
8033c580   dhcpBuildOptions
8033e300   dhcpBuildRequest
80342700   dhcpDecodeType
8034d7c0   dhcpOptionsClear
80325300   dhcpPacketProcess
80355540   dhcpPacketReceive
803555a0   dhcpPacketSend
80352d80   dhcpSocketClose
803385a0   dhcpSocketOpen
80334380   dhcpState
80335940   dhcpVerifyMessage
8033d400   dtask_tcp_echo
80352e00   efs_fclose
803208a0   efs_filecheck
803506e0   efs_filesend
8034d880   efs_fopen
803583e0   efs_getfilesize
80356e40   efs_loadfunction
80300018   emac_display_linkstatus
80375658   emac_port_mode
80375a3c   ethSemHandle
80353480   evmI2CInit
8034b140   exit
8033a5e0   fdClose
80350780   fdCloseSession
80346020   fdOpenSession
80312300   fdPoll
8031efc0   fdSelect
80355600   fdSelectAbort
80355660   fdint_clearevent
80356e80   fdint_freefdt
803556c0   fdint_getfdt
8034b220   fdint_lockfd
80355720   fdint_setevent
80358400   fdint_signaltimeout
80347b40   fdint_unlockfd
80352f00   fdint_waitevent
80355780   fdsetTestEntry
8034b300   fflush
80325954   fpgaControlUserLEDs
80325928   fpgaDisableEepromWriteProtect
803258f8   fpgaDisableNandWriteProtect
803258cc   fpgaDisableNorWriteProtect
803258a0   fpgaEnableEepromWriteProtect
80325870   fpgaEnableNandWriteProtect
80325844   fpgaEnableNorWriteProtect
80325820   fpgaGetAMCDetect
803257f0   fpgaGetUserSwitch
80325680   fpgaReadConfigurationRegister
80325778   fpgaWriteConfigurationRegister
803345c0   fputc
80322ee0   fputs
80356ec0   free
80342840   fseek
0085cf00   gAccChannelNum
80366a70   gCppiCfg
803755e4   gDeviceEeprom0
8037561c   gDeviceEeprom1
80375574   gDeviceNand
80374348   gDeviceNandBBlist
803755ac   gDeviceNor
80375b9c   gFragQList
0085cf20   gGlobalFreeQHnd
0085ce00   gHiPriAccumList
00852b00   gHostDesc
80366978   gI2cBlock
80375bfc   gMLDNodeList
0085a800   gMemL2Ram
0085abe8   gMemL3Ram
0085a700   gPAInst
0085cfb4   gPAInstHnd
0085cc34   gPaCfgCmdRespQHnd
0085cc40   gPaL2Handles
0085cc68   gPaL3Handles
0085ccb8   gPaL4Handles
0085cc00   gPaTxQHnd
0085cfb0   gPassCpdmaHnd
0085cf50   gPassCpdmaRxChanHnd
0085cf28   gPassCpdmaTxChanHnd
8036679c   gPlatformInfo
0085cfb8   gQPopErrorCounter
0085cfbc   gQPushErrorCounter
0085cf0c   gRxCounter
0085cf14   gRxDropCounter
0085cc38   gRxFlowHnd
0085cc2c   gRxFreeQHnd
0085cc30   gRxQHnd
80375a38   gTxCmdFreeQHnd
80375a34   gTxCmdReturnQHnd
0085cf08   gTxCounter
0085cf10   gTxDropCounter
0085cc28   gTxFreeQHnd
0085cf04   gTxPort
0085cc24   gTxReturnQHnd
80325738   getBoardVersion
803256f8   getFpgaDevID
8033c720   getpeername
80342ac0   httpAuthenticationReq
80309ea0   httpClientProcess
80343e60   httpClose
80375be8   httpErrorResponseHook
80346140   httpOpen
80331380   httpParseRecv
803557e0   httpSendClientStr
80352f80   httpSendEntityLength
80353000   httpSendErrorResponse
8034d940   httpSendFullResponse
8031b460   httpSendStatusLine
803130a4   i2cEepromMacRead
80312f70   i2cEepromMacWrite
80312e50   i2cEepromRead
80312d90   i2cEepromWrite
80312ac0   i2cEepromWriteBlock
80312c8c   i2cEepromWriteByteAddr
80366a90   icmp6stats
80356f00   inet_addr
80328b00   inet_aton
80355840   ipcpInit
80311360   ipcpInput
803558a0   ipcpStart
803668ac   ips
80366528   ipv6mcb
80355900   lcpClose
803508c0   lcpInit
8030d5c0   lcpInput
80346260   lcpOpen
80346380   lcpReject
80356f80   list_add
80355960   list_cat
80358420   list_get_head
80358440   list_get_next
80356fc0   list_remove
803559c0   list_remove_node
80347c40   listen
8033e480   llEnter
8034b4c0   llExit
80358460   llSerialService
80358480   llTimerGetStartTime
80353080   llTimerGetTime
80350aa0   llTimerTick
80350b40   lseek
8034b5a0   ltoa
803688d8   m
80310340   main
80353100   malloc
80355a20   memccpy
80350be0   memcpy
8034b680   memset
80327b20   mmAlloc
8034b760   mmBulkAlloc
80350c80   mmBulkFree
80342c00   mmCopy
80347d40   mmFree
8034da00   mmZeroInit
8030beec   nandFlashBlockErase
8030bee4   nandInit
803669f0   nimuGlobalConfigParams
8030000c   nimu_getrxdrops
80300000   nimu_gettxdrops
80366914   nimu_mcb
80323580   nor_erase
80323514   nor_get_details
803234ac   nor_init
80323438   nor_read
80323324   nor_write
8037412c   paLObj
803705f8   paMemAligns
803244e0   papInput
8036fa60   pap_pdsp_const_reg_map
80303130   platform_blocknpage_to_offset
80301fc4   platform_delay
803037b4   platform_delaycycles
80302b48   platform_device_close
80303720   platform_device_erase_block
8030362c   platform_device_mark_block_bad
80302924   platform_device_open
80302a2c   platform_device_read
803035b8   platform_device_read_spare_data
803031c8   platform_device_write
803030c0   platform_device_write_spare_data
80375bd4   platform_errno
80302f50   platform_external_memory_test
803021b8   platform_get_coreid
80302ef8   platform_get_emac_info
80302c48   platform_get_info
803028c8   platform_get_macaddr
80302080   platform_get_phy_addr
803257f0   platform_get_switch_state
80302604   platform_init
80375bd8   platform_init_return_code
803021c8   platform_internal_memory_test
80302190   platform_led
803020d0   platform_offset_to_blocknpage
80302084   platform_phy_link_status
80302064   platform_uart_init
80302004   platform_uart_read
80301f98   platform_uart_set_baudrate
80301e88   platform_uart_write
80301e98   platform_write
80301e70   platform_write_configure
803194a0   pppEvent
8034b840   pppFree
8032c540   pppInput
8031da40   pppNew
80355ba0   pppoeInput
80327e60   pppoeSI
8034b920   printf
8030df78   prog_pll1_values
80374160   pstrMsgName
80375bc4   pt6TimeFirst
80375bc0   ptTimeFirst
80358500   pthread_equal
80355c00   pthread_mutex_destroy
80353280   pthread_mutex_init
8034dc40   pthread_mutex_lock
8034dd00   pthread_mutex_unlock
8034ddc0   pthread_once
80357040   pthread_self
80358520   putc
80358540   putchar
80372980   qmssGObj
803736e0   qmssGblCfgParams
803661b0   qmssLObj
80375c14   qmssLObjIsValid
80370980   queueFree
80366ae4   raw6_stats
803666fc   raweth_pcb
80366af4   raweths
80366ad4   raws
8030bc2c   readNandPage
80353300   readmsg
80342e80   recv
80356140   remove
80309a34   res_mgr_cppi_get_passhandle
80309a24   res_mgr_get_painstance
80309714   res_mgr_init_cppi
80309388   res_mgr_init_pass
80309100   res_mgr_init_qmss
803090e8   res_mgr_qmss_get_freeq
80309020   res_mgr_stop_cppi
80309000   res_mgr_stop_qmss
80342fc0   send
80338780   sendto
80301e40   serial_num_isvalid
80340780   setsockopt
80335d80   setvbuf
803464a0   socket
8031e198   spi_claim
8031e150   spi_cmd
8031e118   spi_cmd_read
8031e0e4   spi_cmd_write
8031e070   spi_read_word
8031e054   spi_release
8031dff4   spi_write_word
8031dea0   spi_xfer
80366ac4   stkEvent
80350fa0   stricmp
80351040   strstr
80375bc8   tcp6_iss
80366644   tcp6_stats
80375bbc   tcp_iss
80366580   tcps
803408e0   telnetClientProcess
803741a0   ti_ndk_config_Global_Id2Size
80375c48   ti_ndk_config_Global_largest
80375c4c   ti_ndk_config_Global_numFrameBuf
00800000   ti_ndk_config_Global_pBufMem
0084e000   ti_ndk_config_Global_pHdrMem
80358ee0   ti_ndk_config_Global_pit
803590a0   ti_ndk_config_Global_pitBuffer
80375c40   ti_ndk_config_Global_rawPageCount
80375c3c   ti_ndk_config_Global_rawPageSize
80375c50   ti_ndk_config_Global_sizeFrameBuf
80375c44   ti_ndk_config_Global_smallest
8034de80   ti_ndk_config_Global_stackThread
80370124   ti_sysbios_BIOS_Module__diagsEnabled__C
8037042c   ti_sysbios_BIOS_Module__diagsIncluded__C
8037048c   ti_sysbios_BIOS_Module__diagsMask__C
8036f082   ti_sysbios_BIOS_Module__id__C
80372d80   ti_sysbios_BIOS_Module__state__V
80358560   ti_sysbios_BIOS_RtsGateProxy_enter__E
80358580   ti_sysbios_BIOS_RtsGateProxy_leave__E
80358820   ti_sysbios_BIOS_RtsGateProxy_query__E
8034df40   ti_sysbios_BIOS_errorRaiseHook__I
80353500   ti_sysbios_BIOS_exitFunc__I
803585a0   ti_sysbios_BIOS_getCpuFreq__E
803704ac   ti_sysbios_BIOS_installedErrorHook__C
803585c0   ti_sysbios_BIOS_nullFunc__I
80353580   ti_sysbios_BIOS_registerRTSLock__I
80355c60   ti_sysbios_BIOS_rtsLock__I
803465c0   ti_sysbios_BIOS_rtsUnlock__I
803585e0   ti_sysbios_BIOS_setThreadType__E
80357080   ti_sysbios_BIOS_startFunc__I
80358600   ti_sysbios_BIOS_start__E
80358620   ti_sysbios_family_c62_TaskSupport_Module__startupDone__S
80356dc0   ti_sysbios_family_c62_TaskSupport_buildTaskStack
80358640   ti_sysbios_family_c62_TaskSupport_checkStack__E
80358660   ti_sysbios_family_c62_TaskSupport_getStackAlignment__E
803582a0   ti_sysbios_family_c62_TaskSupport_glue
803705f4   ti_sysbios_family_c62_TaskSupport_stackAlignment__C
80355cc0   ti_sysbios_family_c62_TaskSupport_start__E
80352c00   ti_sysbios_family_c62_TaskSupport_swap__E
80370608   ti_sysbios_family_c64p_EventCombiner_EVTMASK__C
8037064c   ti_sysbios_family_c64p_EventCombiner_E_unpluggedEvent__C
8036f8ce   ti_sysbios_family_c64p_EventCombiner_Module__id__C
80372da0   ti_sysbios_family_c64p_EventCombiner_Module__state__V
80355d20   ti_sysbios_family_c64p_EventCombiner_Module_startup__E
80355d20   ti_sysbios_family_c64p_EventCombiner_Module_startup__F
803570c0   ti_sysbios_family_c64p_EventCombiner_disableEvent__E
803570c0   ti_sysbios_family_c64p_EventCombiner_disableEvent__F
80355d80   ti_sysbios_family_c64p_EventCombiner_dispatchPlug__E
80355d80   ti_sysbios_family_c64p_EventCombiner_dispatchPlug__F
80347e40   ti_sysbios_family_c64p_EventCombiner_dispatch__E
80347e40   ti_sysbios_family_c64p_EventCombiner_dispatch__F
80357100   ti_sysbios_family_c64p_EventCombiner_enableEvent__E
80357100   ti_sysbios_family_c64p_EventCombiner_enableEvent__F
80355de0   ti_sysbios_family_c64p_EventCombiner_unused__E
80355de0   ti_sysbios_family_c64p_EventCombiner_unused__F
8037065c   ti_sysbios_family_c64p_Exception_E_exceptionMax__C
8037066c   ti_sysbios_family_c64p_Exception_E_exceptionMin__C
8036fc82   ti_sysbios_family_c64p_Exception_Module__id__C
803731a0   ti_sysbios_family_c64p_Exception_Module__state__V
80343100   ti_sysbios_family_c64p_Exception_Module_startup__E
80343100   ti_sysbios_family_c64p_Exception_Module_startup__F
8033a960   ti_sysbios_family_c64p_Exception_decodeMpfsr__I
8033e780   ti_sysbios_family_c64p_Exception_dispatch__E
8036fdde   ti_sysbios_family_c64p_Exception_enableExternalMPC__C
8036ffd2   ti_sysbios_family_c64p_Exception_enablePrint__C
803706f8   ti_sysbios_family_c64p_Exception_exceptionHook__C
80338960   ti_sysbios_family_c64p_Exception_externalHandler__I
803706fc   ti_sysbios_family_c64p_Exception_externalHook__C
8030f200   ti_sysbios_family_c64p_Exception_handler__I
80331840   ti_sysbios_family_c64p_Exception_internalHandler__I
80370700   ti_sysbios_family_c64p_Exception_internalHook__C
80370704   ti_sysbios_family_c64p_Exception_nmiHook__C
80370122   ti_sysbios_family_c64p_Exception_useInternalBuffer__C
80376000   ti_sysbios_family_c64p_Hwi0
80370708   ti_sysbios_family_c64p_Hwi_LD_end__C
8037070c   ti_sysbios_family_c64p_Hwi_LM_begin__C
80370710   ti_sysbios_family_c64p_Hwi_Module__diagsEnabled__C
80370714   ti_sysbios_family_c64p_Hwi_Module__diagsIncluded__C
80370718   ti_sysbios_family_c64p_Hwi_Module__diagsMask__C
8037048a   ti_sysbios_family_c64p_Hwi_Module__id__C
80370586   ti_sysbios_family_c64p_Hwi_Module__loggerDefined__C
8037071c   ti_sysbios_family_c64p_Hwi_Module__loggerFxn1__C
80370720   ti_sysbios_family_c64p_Hwi_Module__loggerFxn8__C
80370724   ti_sysbios_family_c64p_Hwi_Module__loggerObj__C
803731d0   ti_sysbios_family_c64p_Hwi_Module__root__V
80357140   ti_sysbios_family_c64p_Hwi_Module__startupDone__F
80357140   ti_sysbios_family_c64p_Hwi_Module__startupDone__S
803731d8   ti_sysbios_family_c64p_Hwi_Module__state__V
80343240   ti_sysbios_family_c64p_Hwi_Module_startup__E
80343240   ti_sysbios_family_c64p_Hwi_Module_startup__F
80373db8   ti_sysbios_family_c64p_Hwi_Object__table__V
80358680   ti_sysbios_family_c64p_Hwi_clearInterrupt__E
80357180   ti_sysbios_family_c64p_Hwi_disableInterrupt__E
80337620   ti_sysbios_family_c64p_Hwi_dispatchAlways
80329a60   ti_sysbios_family_c64p_Hwi_dispatchC__I
803571c0   ti_sysbios_family_c64p_Hwi_enableInterrupt__E
803510e0   ti_sysbios_family_c64p_Hwi_eventMap__E
80351180   ti_sysbios_family_c64p_Hwi_getStackInfo__E
80376000   ti_sysbios_family_c64p_Hwi_int0
80376020   ti_sysbios_family_c64p_Hwi_int1
80376140   ti_sysbios_family_c64p_Hwi_int10
80376160   ti_sysbios_family_c64p_Hwi_int11
80376180   ti_sysbios_family_c64p_Hwi_int12
803761a0   ti_sysbios_family_c64p_Hwi_int13
803761c0   ti_sysbios_family_c64p_Hwi_int14
803761e0   ti_sysbios_family_c64p_Hwi_int15
80376040   ti_sysbios_family_c64p_Hwi_int2
80376060   ti_sysbios_family_c64p_Hwi_int3
80376080   ti_sysbios_family_c64p_Hwi_int4
803760a0   ti_sysbios_family_c64p_Hwi_int5
803760c0   ti_sysbios_family_c64p_Hwi_int6
803760e0   ti_sysbios_family_c64p_Hwi_int7
80376100   ti_sysbios_family_c64p_Hwi_int8
80376120   ti_sysbios_family_c64p_Hwi_int9
80355e40   ti_sysbios_family_c64p_Hwi_restoreInterrupt__E
803586a0   ti_sysbios_family_c64p_Hwi_startup__E
803586c0   ti_sysbios_family_c64p_Hwi_switchFromBootStack__E
803586e0   ti_sysbios_family_c64p_TimestampProvider_Module_startup__E
803586e0   ti_sysbios_family_c64p_TimestampProvider_Module_startup__F
80358700   ti_sysbios_family_c64p_TimestampProvider_get32__E
80358720   ti_sysbios_family_c64p_TimestampProvider_get64__E
803585a0   ti_sysbios_family_c64p_TimestampProvider_getFreq__E
80358740   ti_sysbios_family_c64p_tci6488_TimerSupport_enable__E
80343380   ti_sysbios_family_c66_Cache_Module_startup__E
80343380   ti_sysbios_family_c66_Cache_Module_startup__F
80370728   ti_sysbios_family_c66_Cache_atomicBlockSize__C
8033cc00   ti_sysbios_family_c66_Cache_block__I
80370634   ti_sysbios_family_c66_Cache_initSize__C
8036dd98   ti_sysbios_family_c66_Cache_marvalues__C
80358760   ti_sysbios_family_c66_Cache_wbInv__E
80356e00   ti_sysbios_family_xxx_Hwi_switchToIsrStack
803582c0   ti_sysbios_family_xxx_Hwi_switchToTaskStack
80357200   ti_sysbios_gates_GateHwi_Handle__label__S
80358780   ti_sysbios_gates_GateHwi_Instance_init__F
80370254   ti_sysbios_gates_GateHwi_Module__FXNS__C
80373240   ti_sysbios_gates_GateHwi_Module__root__V
8037032c   ti_sysbios_gates_GateHwi_Object__DESC__C
80370510   ti_sysbios_gates_GateHwi_Object__PARAMS__C
80353600   ti_sysbios_gates_GateHwi_Object__create__S
80357240   ti_sysbios_gates_GateHwi_Object__delete__S
803742c8   ti_sysbios_gates_GateHwi_Object__table__V
803587a0   ti_sysbios_gates_GateHwi_enter__E
803587c0   ti_sysbios_gates_GateHwi_leave__E
803587e0   ti_sysbios_gates_GateHwi_query__E
803587e0   ti_sysbios_gates_GateHwi_query__F
8037072c   ti_sysbios_gates_GateMutex_A_badContext__C
80357280   ti_sysbios_gates_GateMutex_Handle__label__S
80370730   ti_sysbios_gates_GateMutex_Instance_State_sem__O
80358800   ti_sysbios_gates_GateMutex_Instance_finalize__F
80355ea0   ti_sysbios_gates_GateMutex_Instance_init__F
80370278   ti_sysbios_gates_GateMutex_Module__FXNS__C
80370734   ti_sysbios_gates_GateMutex_Module__diagsEnabled__C
80370738   ti_sysbios_gates_GateMutex_Module__diagsIncluded__C
8037073c   ti_sysbios_gates_GateMutex_Module__diagsMask__C
803705f2   ti_sysbios_gates_GateMutex_Module__id__C
80373248   ti_sysbios_gates_GateMutex_Module__root__V
8037034c   ti_sysbios_gates_GateMutex_Object__DESC__C
80370528   ti_sysbios_gates_GateMutex_Object__PARAMS__C
80353680   ti_sysbios_gates_GateMutex_Object__create__S
80355f00   ti_sysbios_gates_GateMutex_Object__delete__S
80374020   ti_sysbios_gates_GateMutex_Object__table__V
8033ab20   ti_sysbios_gates_GateMutex_enter__E
803572c0   ti_sysbios_gates_GateMutex_leave__E
80358820   ti_sysbios_gates_GateMutex_query__E
80358820   ti_sysbios_gates_GateMutex_query__F
80358760   ti_sysbios_hal_Cache_CacheProxy_wbInv__E
80358760   ti_sysbios_hal_Cache_wbInv__E
80370740   ti_sysbios_hal_Hwi_E_stackOverflow__C
80358840   ti_sysbios_hal_Hwi_HwiProxy_Module__startupDone__S
80358680   ti_sysbios_hal_Hwi_HwiProxy_clearInterrupt__E
80357180   ti_sysbios_hal_Hwi_HwiProxy_disableInterrupt__E
803571c0   ti_sysbios_hal_Hwi_HwiProxy_enableInterrupt__E
80351180   ti_sysbios_hal_Hwi_HwiProxy_getStackInfo__E
80355e40   ti_sysbios_hal_Hwi_HwiProxy_restoreInterrupt__E
803586a0   ti_sysbios_hal_Hwi_HwiProxy_startup__E
803586c0   ti_sysbios_hal_Hwi_HwiProxy_switchFromBootStack__E
80370632   ti_sysbios_hal_Hwi_Module__id__C
80373250   ti_sysbios_hal_Hwi_Module__root__V
80358860   ti_sysbios_hal_Hwi_Module_startup__E
80358860   ti_sysbios_hal_Hwi_Module_startup__F
80374298   ti_sysbios_hal_Hwi_Object__table__V
80353700   ti_sysbios_hal_Hwi_checkStack
80358680   ti_sysbios_hal_Hwi_clearInterrupt__E
80357180   ti_sysbios_hal_Hwi_disableInterrupt__E
803571c0   ti_sysbios_hal_Hwi_enableInterrupt__E
80351180   ti_sysbios_hal_Hwi_getStackInfo__E
80353780   ti_sysbios_hal_Hwi_initStack
80355e40   ti_sysbios_hal_Hwi_restoreInterrupt__E
803586a0   ti_sysbios_hal_Hwi_startup__E
803586c0   ti_sysbios_hal_Hwi_switchFromBootStack__E
80373258   ti_sysbios_hal_Timer_Module__root__V
80357300   ti_sysbios_hal_Timer_Module__startupDone__F
80357300   ti_sysbios_hal_Timer_Module__startupDone__S
80358880   ti_sysbios_hal_Timer_Module_startup__E
80358880   ti_sysbios_hal_Timer_Module_startup__F
803742c0   ti_sysbios_hal_Timer_Object__table__V
803588a0   ti_sysbios_hal_Timer_TimerProxy_Module__startupDone__S
803588c0   ti_sysbios_hal_Timer_TimerProxy_getExpiredCounts__E
803588e0   ti_sysbios_hal_Timer_TimerProxy_getPeriod__E
80358900   ti_sysbios_hal_Timer_TimerProxy_setNextTick__E
8034e240   ti_sysbios_hal_Timer_TimerProxy_startup__E
8034e240   ti_sysbios_hal_Timer_startup__E
80370744   ti_sysbios_heaps_HeapBuf_Instance_State_freeList__O
80373260   ti_sysbios_heaps_HeapBuf_Module__root__V
80373268   ti_sysbios_heaps_HeapBuf_Module__state__V
8033cda0   ti_sysbios_heaps_HeapBuf_Module_startup__E
8033cda0   ti_sysbios_heaps_HeapBuf_Module_startup__F
80370748   ti_sysbios_heaps_HeapBuf_Object__count__C
80358920   ti_sysbios_heaps_HeapBuf_Object__get__S
8037074c   ti_sysbios_heaps_HeapBuf_numConstructedHeaps__C
80370750   ti_sysbios_heaps_HeapMem_A_align__C
80370754   ti_sysbios_heaps_HeapMem_A_heapSize__C
80370758   ti_sysbios_heaps_HeapMem_A_invalidFree__C
8037075c   ti_sysbios_heaps_HeapMem_A_zeroBlock__C
80370760   ti_sysbios_heaps_HeapMem_E_memory__C
80357340   ti_sysbios_heaps_HeapMem_Handle__label__S
80000000   ti_sysbios_heaps_HeapMem_Instance_State_0_buf__A
8032ba20   ti_sysbios_heaps_HeapMem_Instance_init__F
80358940   ti_sysbios_heaps_HeapMem_Module_GateProxy_enter__E
80358960   ti_sysbios_heaps_HeapMem_Module_GateProxy_leave__E
80358820   ti_sysbios_heaps_HeapMem_Module_GateProxy_query__E
803701dc   ti_sysbios_heaps_HeapMem_Module__FXNS__C
80370764   ti_sysbios_heaps_HeapMem_Module__diagsEnabled__C
80370768   ti_sysbios_heaps_HeapMem_Module__diagsIncluded__C
8037076c   ti_sysbios_heaps_HeapMem_Module__diagsMask__C
80370770   ti_sysbios_heaps_HeapMem_Module__gateObj__C
8037065a   ti_sysbios_heaps_HeapMem_Module__id__C
8037326c   ti_sysbios_heaps_HeapMem_Module__root__V
8037036c   ti_sysbios_heaps_HeapMem_Object__DESC__C
8037029c   ti_sysbios_heaps_HeapMem_Object__PARAMS__C
80370774   ti_sysbios_heaps_HeapMem_Object__count__C
80353800   ti_sysbios_heaps_HeapMem_Object__create__S
80357380   ti_sysbios_heaps_HeapMem_Object__delete__S
803573c0   ti_sysbios_heaps_HeapMem_Object__get__S
803741f0   ti_sysbios_heaps_HeapMem_Object__table__V
80316060   ti_sysbios_heaps_HeapMem_alloc__E
80317240   ti_sysbios_heaps_HeapMem_free__E
8034e000   ti_sysbios_heaps_HeapMem_getStats__E
80351220   ti_sysbios_heaps_HeapMem_init__I
80358980   ti_sysbios_heaps_HeapMem_isBlocking__E
80370778   ti_sysbios_heaps_HeapMem_reqAlign__C
8037077c   ti_sysbios_knl_Clock_A_badThreadType__C
8032dfa0   ti_sysbios_knl_Clock_Instance_init__F
80370780   ti_sysbios_knl_Clock_LM_begin__C
80370784   ti_sysbios_knl_Clock_LM_tick__C
80370788   ti_sysbios_knl_Clock_LW_delayed__C
8037078c   ti_sysbios_knl_Clock_Module_State_clockQ__O
80370790   ti_sysbios_knl_Clock_Module__diagsEnabled__C
80370794   ti_sysbios_knl_Clock_Module__diagsIncluded__C
80370798   ti_sysbios_knl_Clock_Module__diagsMask__C
8037066a   ti_sysbios_knl_Clock_Module__id__C
803706e6   ti_sysbios_knl_Clock_Module__loggerDefined__C
8037079c   ti_sysbios_knl_Clock_Module__loggerFxn1__C
803707a0   ti_sysbios_knl_Clock_Module__loggerFxn2__C
803707a4   ti_sysbios_knl_Clock_Module__loggerObj__C
80373274   ti_sysbios_knl_Clock_Module__root__V
8037327c   ti_sysbios_knl_Clock_Module__state__V
80353880   ti_sysbios_knl_Clock_Module_startup__E
80353880   ti_sysbios_knl_Clock_Module_startup__F
8037038c   ti_sysbios_knl_Clock_Object__DESC__C
803702c0   ti_sysbios_knl_Clock_Object__PARAMS__C
803512c0   ti_sysbios_knl_Clock_Object__create__S
803589a0   ti_sysbios_knl_Clock_Params__init__S
80353900   ti_sysbios_knl_Clock_doTick__I
80353980   ti_sysbios_knl_Clock_getTicks__E
8034e0c0   ti_sysbios_knl_Clock_logTick__E
803466e0   ti_sysbios_knl_Clock_startI__E
8034ba00   ti_sysbios_knl_Clock_start__E
803707a8   ti_sysbios_knl_Clock_tickMode__C
803707ac   ti_sysbios_knl_Clock_tickSource__C
8032e240   ti_sysbios_knl_Clock_workFunc__E
80370698   ti_sysbios_knl_Idle_coreList__A
803706a0   ti_sysbios_knl_Idle_coreList__C
803706a8   ti_sysbios_knl_Idle_funcList__A
803706b0   ti_sysbios_knl_Idle_funcList__C
803589c0   ti_sysbios_knl_Idle_loop__E
80351360   ti_sysbios_knl_Idle_run__E
803589e0   ti_sysbios_knl_Queue_Instance_init__F
803732a4   ti_sysbios_knl_Queue_Module__root__V
803703ac   ti_sysbios_knl_Queue_Object__DESC__C
80370540   ti_sysbios_knl_Queue_Object__PARAMS__C
80353a00   ti_sysbios_knl_Queue_Object__create__S
80358a00   ti_sysbios_knl_Queue_Object__destruct__S
80358a20   ti_sysbios_knl_Queue_Object__get__S
80358a40   ti_sysbios_knl_Queue_empty__E
803707b0   ti_sysbios_knl_Semaphore_A_badContext__C
803707b4   ti_sysbios_knl_Semaphore_A_noEvents__C
803707b8   ti_sysbios_knl_Semaphore_A_overflow__C
803707bc   ti_sysbios_knl_Semaphore_A_pendTaskDisabled__C
803707c0   ti_sysbios_knl_Semaphore_Instance_State_pendQ__O
80358a60   ti_sysbios_knl_Semaphore_Instance_finalize__F
803434c0   ti_sysbios_knl_Semaphore_Instance_init__F
803707c4   ti_sysbios_knl_Semaphore_LM_pend__C
803707c8   ti_sysbios_knl_Semaphore_LM_post__C
803707cc   ti_sysbios_knl_Semaphore_Module__diagsEnabled__C
803707d0   ti_sysbios_knl_Semaphore_Module__diagsIncluded__C
803707d4   ti_sysbios_knl_Semaphore_Module__diagsMask__C
803706ee   ti_sysbios_knl_Semaphore_Module__id__C
803706f6   ti_sysbios_knl_Semaphore_Module__loggerDefined__C
803707d8   ti_sysbios_knl_Semaphore_Module__loggerFxn2__C
803707dc   ti_sysbios_knl_Semaphore_Module__loggerFxn4__C
803707e0   ti_sysbios_knl_Semaphore_Module__loggerObj__C
803732ac   ti_sysbios_knl_Semaphore_Module__root__V
803703cc   ti_sysbios_knl_Semaphore_Object__DESC__C
803702e4   ti_sysbios_knl_Semaphore_Object__PARAMS__C
80353a80   ti_sysbios_knl_Semaphore_Object__create__S
80355f60   ti_sysbios_knl_Semaphore_Object__delete__S
80357400   ti_sysbios_knl_Semaphore_Object__destruct__S
80358a80   ti_sysbios_knl_Semaphore_Params__init__S
80351400   ti_sysbios_knl_Semaphore_pendTimeout__I
80316660   ti_sysbios_knl_Semaphore_pend__E
80331aa0   ti_sysbios_knl_Semaphore_post__E
80358aa0   ti_sysbios_knl_Semaphore_reset__E
803707e4   ti_sysbios_knl_Swi_LD_end__C
803707e8   ti_sysbios_knl_Swi_LM_begin__C
803707ec   ti_sysbios_knl_Swi_LM_post__C
80373a48   ti_sysbios_knl_Swi_Module_State_0_readyQ__A
803707f0   ti_sysbios_knl_Swi_Module__diagsEnabled__C
803707f4   ti_sysbios_knl_Swi_Module__diagsIncluded__C
803707f8   ti_sysbios_knl_Swi_Module__diagsMask__C
8037093c   ti_sysbios_knl_Swi_Module__id__C
8037093e   ti_sysbios_knl_Swi_Module__loggerDefined__C
803707fc   ti_sysbios_knl_Swi_Module__loggerFxn1__C
80370800   ti_sysbios_knl_Swi_Module__loggerFxn4__C
80370804   ti_sysbios_knl_Swi_Module__loggerObj__C
803732b4   ti_sysbios_knl_Swi_Module__root__V
803732bc   ti_sysbios_knl_Swi_Module__state__V
80355fc0   ti_sysbios_knl_Swi_Module_startup__E
80355fc0   ti_sysbios_knl_Swi_Module_startup__F
80370808   ti_sysbios_knl_Swi_Object__count__C
80357440   ti_sysbios_knl_Swi_Object__get__S
803740d8   ti_sysbios_knl_Swi_Object__table__V
80358ac0   ti_sysbios_knl_Swi_disable__E
80343600   ti_sysbios_knl_Swi_post__E
80347f40   ti_sysbios_knl_Swi_restoreHwi__E
80335fa0   ti_sysbios_knl_Swi_run__I
8033e900   ti_sysbios_knl_Swi_schedule__I
80353b00   ti_sysbios_knl_Swi_startup__E
8037080c   ti_sysbios_knl_Task_A_badPriority__C
80370810   ti_sysbios_knl_Task_A_badTaskState__C
80370814   ti_sysbios_knl_Task_A_badThreadType__C
80370818   ti_sysbios_knl_Task_A_badTimeout__C
8037081c   ti_sysbios_knl_Task_A_noPendElem__C
80370820   ti_sysbios_knl_Task_A_sleepTaskDisabled__C
80370824   ti_sysbios_knl_Task_E_deleteNotAllowed__C
80370828   ti_sysbios_knl_Task_E_spOutOfBounds__C
8037082c   ti_sysbios_knl_Task_E_stackOverflow__C
803650a0   ti_sysbios_knl_Task_Instance_State_0_hookEnv__A
00856b00   ti_sysbios_knl_Task_Instance_State_0_stack__A
803650a8   ti_sysbios_knl_Task_Instance_State_1_hookEnv__A
00857f00   ti_sysbios_knl_Task_Instance_State_1_stack__A
803650b0   ti_sysbios_knl_Task_Instance_State_2_hookEnv__A
00859f00   ti_sysbios_knl_Task_Instance_State_2_stack__A
80315a40   ti_sysbios_knl_Task_Instance_finalize__F
80320ca0   ti_sysbios_knl_Task_Instance_init__F
80370830   ti_sysbios_knl_Task_LD_block__C
80370834   ti_sysbios_knl_Task_LD_exit__C
80370838   ti_sysbios_knl_Task_LD_ready__C
8037083c   ti_sysbios_knl_Task_LM_setPri__C
80370840   ti_sysbios_knl_Task_LM_sleep__C
80370844   ti_sysbios_knl_Task_LM_switch__C
803742d8   ti_sysbios_knl_Task_Module_State_0_idleTask__A
80373ac8   ti_sysbios_knl_Task_Module_State_0_readyQ__A
80370848   ti_sysbios_knl_Task_Module_State_inactiveQ__O
8037084c   ti_sysbios_knl_Task_Module_State_terminatedQ__O
80370850   ti_sysbios_knl_Task_Module__diagsEnabled__C
80370854   ti_sysbios_knl_Task_Module__diagsIncluded__C
80370858   ti_sysbios_knl_Task_Module__diagsMask__C
80370940   ti_sysbios_knl_Task_Module__id__C
80370942   ti_sysbios_knl_Task_Module__loggerDefined__C
8037085c   ti_sysbios_knl_Task_Module__loggerFxn2__C
80370860   ti_sysbios_knl_Task_Module__loggerFxn4__C
80370864   ti_sysbios_knl_Task_Module__loggerObj__C
803732d8   ti_sysbios_knl_Task_Module__root__V
803732e0   ti_sysbios_knl_Task_Module__state__V
80343740   ti_sysbios_knl_Task_Module_startup__E
80343740   ti_sysbios_knl_Task_Module_startup__F
803703ec   ti_sysbios_knl_Task_Object__DESC__C
8036ffd4   ti_sysbios_knl_Task_Object__PARAMS__C
80370868   ti_sysbios_knl_Task_Object__count__C
80348040   ti_sysbios_knl_Task_Object__create__S
80356020   ti_sysbios_knl_Task_Object__delete__S
80358ae0   ti_sysbios_knl_Task_Object__first__S
80357480   ti_sysbios_knl_Task_Object__get__S
8037086c   ti_sysbios_knl_Task_Object__heap__C
80358b00   ti_sysbios_knl_Task_Object__next__S
80373800   ti_sysbios_knl_Task_Object__table__V
80358b20   ti_sysbios_knl_Task_Params__init__S
80358b40   ti_sysbios_knl_Task_SupportProxy_Module__startupDone__S
80358640   ti_sysbios_knl_Task_SupportProxy_checkStack__E
80358660   ti_sysbios_knl_Task_SupportProxy_getStackAlignment__E
80355cc0   ti_sysbios_knl_Task_SupportProxy_start__E
80352c00   ti_sysbios_knl_Task_SupportProxy_swap__E
80370870   ti_sysbios_knl_Task_allBlockedFunc__C
8034e180   ti_sysbios_knl_Task_allBlockedFunction__I
80343880   ti_sysbios_knl_Task_blockI__E
80338b40   ti_sysbios_knl_Task_checkStacks__E
80370874   ti_sysbios_knl_Task_defaultStackHeap__C
80370878   ti_sysbios_knl_Task_defaultStackSize__C
803514a0   ti_sysbios_knl_Task_deleteTerminatedTasksFunc__I
80370944   ti_sysbios_knl_Task_deleteTerminatedTasks__C
80358b60   ti_sysbios_knl_Task_disable__E
80356080   ti_sysbios_knl_Task_enter__I
80334800   ti_sysbios_knl_Task_exit__E
80358b80   ti_sysbios_knl_Task_getHookContext__E
80370128   ti_sysbios_knl_Task_hooks__A
803706b8   ti_sysbios_knl_Task_hooks__C
80370946   ti_sysbios_knl_Task_initStackFlag__C
8037087c   ti_sysbios_knl_Task_numConstructedTasks__C
80370880   ti_sysbios_knl_Task_numPriorities__C
80338d20   ti_sysbios_knl_Task_postInit__I
80351540   ti_sysbios_knl_Task_processVitalTaskFlag__I
80353b80   ti_sysbios_knl_Task_restore__E
803361c0   ti_sysbios_knl_Task_schedule__I
80358ba0   ti_sysbios_knl_Task_self__E
80358bc0   ti_sysbios_knl_Task_setHookContext__E
80321480   ti_sysbios_knl_Task_setPri__E
803560e0   ti_sysbios_knl_Task_sleepTimeout__I
80320080   ti_sysbios_knl_Task_sleep__E
803363e0   ti_sysbios_knl_Task_startCore__E
80358be0   ti_sysbios_knl_Task_startup__E
8033ea80   ti_sysbios_knl_Task_unblockI__E
80370884   ti_sysbios_timers_timer64_Timer_A_notAvailable__C
80370888   ti_sysbios_timers_timer64_Timer_E_cannotSupport__C
80373560   ti_sysbios_timers_timer64_Timer_Module_State_0_device__A
80373b48   ti_sysbios_timers_timer64_Timer_Module_State_0_gctrl__A
80373bc8   ti_sysbios_timers_timer64_Timer_Module_State_0_handles__A
80373c48   ti_sysbios_timers_timer64_Timer_Module_State_0_intFreqs__A
8037088c   ti_sysbios_timers_timer64_Timer_Module__diagsEnabled__C
80370890   ti_sysbios_timers_timer64_Timer_Module__diagsIncluded__C
80370894   ti_sysbios_timers_timer64_Timer_Module__diagsMask__C
80370948   ti_sysbios_timers_timer64_Timer_Module__id__C
80373324   ti_sysbios_timers_timer64_Timer_Module__root__V
803574c0   ti_sysbios_timers_timer64_Timer_Module__startupDone__F
803574c0   ti_sysbios_timers_timer64_Timer_Module__startupDone__S
8037332c   ti_sysbios_timers_timer64_Timer_Module__state__V
80318f00   ti_sysbios_timers_timer64_Timer_Module_startup__E
80318f00   ti_sysbios_timers_timer64_Timer_Module_startup__F
80373ed0   ti_sysbios_timers_timer64_Timer_Object__table__V
80358740   ti_sysbios_timers_timer64_Timer_TimerSupportProxy_enable__E
80370898   ti_sysbios_timers_timer64_Timer_anyMask__C
8032e4e0   ti_sysbios_timers_timer64_Timer_deviceConfig__I
8037089c   ti_sysbios_timers_timer64_Timer_freqDivisor__C
80353c00   ti_sysbios_timers_timer64_Timer_getCount__E
80353c00   ti_sysbios_timers_timer64_Timer_getExpiredCounts__E
80338f00   ti_sysbios_timers_timer64_Timer_getFreq__E
80353c80   ti_sysbios_timers_timer64_Timer_getPeriod__E
80348140   ti_sysbios_timers_timer64_Timer_initDevice__I
803708a0   ti_sysbios_timers_timer64_Timer_numLocalTimers__C
803708a4   ti_sysbios_timers_timer64_Timer_numTimerDevices__C
80358c00   ti_sysbios_timers_timer64_Timer_setNextTick__E
8033ace0   ti_sysbios_timers_timer64_Timer_setPeriodMicroSecs__E
8033cf40   ti_sysbios_timers_timer64_Timer_start__E
8037094a   ti_sysbios_timers_timer64_Timer_startupNeeded__C
8034e240   ti_sysbios_timers_timer64_Timer_startup__E
803515e0   ti_sysbios_timers_timer64_Timer_stop__E
80366638   tpseudo
80366a48   udp6_stats
803669bc   udps
80356140   unlink
803669e0   upseudo
80366a20   vlan_mcb
803561a0   vsprintf
80351680   write
8030b8c0   writeNandPage
80353d00   writemsg
803708a8   xdc_runtime_Assert_E_assertFailed__C
80351720   xdc_runtime_Assert_raise__I
803708ac   xdc_runtime_Core_A_initializedParams__C
803708b0   xdc_runtime_Core_Module__diagsEnabled__C
803708b4   xdc_runtime_Core_Module__diagsIncluded__C
803708b8   xdc_runtime_Core_Module__diagsMask__C
8037094c   xdc_runtime_Core_Module__id__C
80353d80   xdc_runtime_Core_assignLabel__I
80353e00   xdc_runtime_Core_assignParams__I
80336600   xdc_runtime_Core_createObject__I
80348340   xdc_runtime_Core_deleteObject__I
803708bc   xdc_runtime_Error_E_memory__C
803708c0   xdc_runtime_Error_Module__diagsEnabled__C
803708c4   xdc_runtime_Error_Module__diagsIncluded__C
803708c8   xdc_runtime_Error_Module__diagsMask__C
8037094e   xdc_runtime_Error_Module__loggerDefined__C
803708cc   xdc_runtime_Error_Module__loggerFxn8__C
803708d0   xdc_runtime_Error_Module__loggerObj__C
80373340   xdc_runtime_Error_Module__state__V
80357500   xdc_runtime_Error_check__E
80357500   xdc_runtime_Error_check__F
80358c20   xdc_runtime_Error_getMsg__E
80358c20   xdc_runtime_Error_getMsg__F
80357540   xdc_runtime_Error_init__E
80357540   xdc_runtime_Error_init__F
80370950   xdc_runtime_Error_maxDepth__C
803708d4   xdc_runtime_Error_policy__C
8034bae0   xdc_runtime_Error_print__E
8034bae0   xdc_runtime_Error_print__F
803708d8   xdc_runtime_Error_raiseHook__C
8032fe00   xdc_runtime_Error_raiseX__E
8032fe00   xdc_runtime_Error_raiseX__F
80358c40   xdc_runtime_Gate_enterSystem__E
80358c40   xdc_runtime_Gate_enterSystem__F
80357580   xdc_runtime_Gate_leaveSystem__E
80357580   xdc_runtime_Gate_leaveSystem__F
803708dc   xdc_runtime_IFilterLogger_Interface__BASE__C
803708e0   xdc_runtime_IGateProvider_Interface__BASE__C
803708e4   xdc_runtime_IHeap_Interface__BASE__C
803708e8   xdc_runtime_ILogger_Interface__BASE__C
803708ec   xdc_runtime_IModule_Interface__BASE__C
803708f0   xdc_runtime_Log_L_error__C
803708f4   xdc_runtime_LoggerBuf_E_badLevel__C
803575c0   xdc_runtime_LoggerBuf_Handle__label__S
803650b8   xdc_runtime_LoggerBuf_Instance_State_0_entryArr__A
80357600   xdc_runtime_LoggerBuf_Instance_finalize__F
8034e300   xdc_runtime_LoggerBuf_Instance_init__F
80358ca0   xdc_runtime_LoggerBuf_Module_GateProxy_enter__E
80358cc0   xdc_runtime_LoggerBuf_Module_GateProxy_leave__E
803587e0   xdc_runtime_LoggerBuf_Module_GateProxy_query__E
80370010   xdc_runtime_LoggerBuf_Module__FXNS__C
803708f8   xdc_runtime_LoggerBuf_Module__gateObj__C
80370952   xdc_runtime_LoggerBuf_Module__id__C
80373344   xdc_runtime_LoggerBuf_Module__root__V
8037334c   xdc_runtime_LoggerBuf_Module__state__V
803517c0   xdc_runtime_LoggerBuf_Module_startup__E
803517c0   xdc_runtime_LoggerBuf_Module_startup__F
8037040c   xdc_runtime_LoggerBuf_Object__DESC__C
80370204   xdc_runtime_LoggerBuf_Object__PARAMS__C
803708fc   xdc_runtime_LoggerBuf_Object__count__C
8034bbc0   xdc_runtime_LoggerBuf_Object__create__S
80356200   xdc_runtime_LoggerBuf_Object__delete__S
80357640   xdc_runtime_LoggerBuf_Object__get__S
80374130   xdc_runtime_LoggerBuf_Object__table__V
80358700   xdc_runtime_LoggerBuf_TimestampProxy_get32__E
80358720   xdc_runtime_LoggerBuf_TimestampProxy_get64__E
803585a0   xdc_runtime_LoggerBuf_TimestampProxy_getFreq__E
80358ce0   xdc_runtime_LoggerBuf_disable__E
80358ce0   xdc_runtime_LoggerBuf_disable__F
80358d00   xdc_runtime_LoggerBuf_enable__E
80358d00   xdc_runtime_LoggerBuf_enable__F
80370954   xdc_runtime_LoggerBuf_filterByLevel__C
80353e80   xdc_runtime_LoggerBuf_filterOutEvent__I
80348440   xdc_runtime_LoggerBuf_getFilterLevel__E
80348440   xdc_runtime_LoggerBuf_getFilterLevel__F
80346800   xdc_runtime_LoggerBuf_setFilterLevel__E
80346800   xdc_runtime_LoggerBuf_setFilterLevel__F
80370900   xdc_runtime_LoggerBuf_statusLogger__C
80357680   xdc_runtime_LoggerBuf_write0__E
80357680   xdc_runtime_LoggerBuf_write0__F
803576c0   xdc_runtime_LoggerBuf_write1__E
803576c0   xdc_runtime_LoggerBuf_write1__F
80357700   xdc_runtime_LoggerBuf_write2__E
80357700   xdc_runtime_LoggerBuf_write2__F
8033d0e0   xdc_runtime_LoggerBuf_write4__E
8033d0e0   xdc_runtime_LoggerBuf_write4__F
80334a40   xdc_runtime_LoggerBuf_write8__E
80334a40   xdc_runtime_LoggerBuf_write8__F
803587e0   xdc_runtime_Main_Module_GateProxy_query__E
80358d20   xdc_runtime_Memory_HeapProxy_alloc__E
80358d40   xdc_runtime_Memory_HeapProxy_free__E
80370956   xdc_runtime_Memory_Module__id__C
80373354   xdc_runtime_Memory_Module__state__V
8034bca0   xdc_runtime_Memory_alloc__E
8034bca0   xdc_runtime_Memory_alloc__F
80356260   xdc_runtime_Memory_calloc__E
80356260   xdc_runtime_Memory_calloc__F
80370904   xdc_runtime_Memory_defaultHeapInstance__C
80357740   xdc_runtime_Memory_free__E
80357740   xdc_runtime_Memory_free__F
80373358   xdc_runtime_Registry_Module__state__V
80357780   xdc_runtime_Registry_findById__E
80357780   xdc_runtime_Registry_findById__F
80373360   xdc_runtime_Startup_Module__state__V
00000001   xdc_runtime_Startup__EXECFXN__C
00000001   xdc_runtime_Startup__RESETFXN__C
80370908   xdc_runtime_Startup_execImpl__C
80348540   xdc_runtime_Startup_exec__E
80348540   xdc_runtime_Startup_exec__F
80358d60   xdc_runtime_Startup_exec__I
803706c0   xdc_runtime_Startup_firstFxns__A
803706c8   xdc_runtime_Startup_firstFxns__C
803706d0   xdc_runtime_Startup_lastFxns__A
803706d8   xdc_runtime_Startup_lastFxns__C
8037090c   xdc_runtime_Startup_maxPasses__C
80358d80   xdc_runtime_Startup_reset__I
80370490   xdc_runtime_Startup_sfxnRts__A
80370910   xdc_runtime_Startup_sfxnRts__C
80370050   xdc_runtime_Startup_sfxnTab__A
80370914   xdc_runtime_Startup_sfxnTab__C
80331d00   xdc_runtime_Startup_startMods__I
803562c0   xdc_runtime_SysStd_abort__E
803562c0   xdc_runtime_SysStd_abort__F
80358da0   xdc_runtime_SysStd_exit__E
80358da0   xdc_runtime_SysStd_exit__F
80358dc0   xdc_runtime_SysStd_putch__E
80358dc0   xdc_runtime_SysStd_putch__F
80358de0   xdc_runtime_SysStd_ready__E
80358de0   xdc_runtime_SysStd_ready__F
80358e00   xdc_runtime_System_Module_GateProxy_enter__E
80358e20   xdc_runtime_System_Module_GateProxy_leave__E
803587e0   xdc_runtime_System_Module_GateProxy_query__E
80374180   xdc_runtime_System_Module_State_0_atexitHandlers__A
80370918   xdc_runtime_System_Module__gateObj__C
80373368   xdc_runtime_System_Module__state__V
80358e40   xdc_runtime_System_Module_startup__E
80358e40   xdc_runtime_System_Module_startup__F
803562c0   xdc_runtime_System_SupportProxy_abort__E
80358da0   xdc_runtime_System_SupportProxy_exit__E
80358dc0   xdc_runtime_System_SupportProxy_putch__E
80358de0   xdc_runtime_System_SupportProxy_ready__E
803577c0   xdc_runtime_System_abort__E
803577c0   xdc_runtime_System_abort__F
80357800   xdc_runtime_System_aprintf__E
80356320   xdc_runtime_System_aprintf_va__E
80356320   xdc_runtime_System_aprintf_va__F
80353f00   xdc_runtime_System_atexit__E
80353f00   xdc_runtime_System_atexit__F
80356320   xdc_runtime_System_avprintf__E
80356320   xdc_runtime_System_avprintf__F
8030faa0   xdc_runtime_System_doPrint__I
80358e60   xdc_runtime_System_exit__E
80358e60   xdc_runtime_System_exit__F
8037091c   xdc_runtime_System_extendFxn__C
8034e3c0   xdc_runtime_System_formatNum__I
80358e80   xdc_runtime_System_lastFxn__I
80370920   xdc_runtime_System_maxAtexitHandlers__C
80331f60   xdc_runtime_System_printfExtend__I
80357840   xdc_runtime_System_printf__E
80356380   xdc_runtime_System_printf_va__E
80356380   xdc_runtime_System_printf_va__F
80353f80   xdc_runtime_System_putchar__I
80354000   xdc_runtime_System_rtsExit__I
80358ea0   xdc_runtime_System_snprintf_va__E
80358ea0   xdc_runtime_System_snprintf_va__F
80357880   xdc_runtime_System_sprintf_va__E
80357880   xdc_runtime_System_sprintf_va__F
80356380   xdc_runtime_System_vprintf__E
80356380   xdc_runtime_System_vprintf__F
80358ea0   xdc_runtime_System_vsnprintf__E
80358ea0   xdc_runtime_System_vsnprintf__F
80357880   xdc_runtime_System_vsprintf__E
80357880   xdc_runtime_System_vsprintf__F
80373374   xdc_runtime_Text_Module__state__V
80370958   xdc_runtime_Text_charCnt__C
8036a188   xdc_runtime_Text_charTab__A
80370924   xdc_runtime_Text_charTab__C
803563e0   xdc_runtime_Text_cordText__E
803563e0   xdc_runtime_Text_cordText__F
8037095a   xdc_runtime_Text_isLoaded__C
80370928   xdc_runtime_Text_nameEmpty__C
8037092c   xdc_runtime_Text_nameStatic__C
80370930   xdc_runtime_Text_nameUnknown__C
8036f088   xdc_runtime_Text_nodeTab__A
80370934   xdc_runtime_Text_nodeTab__C
80354080   xdc_runtime_Text_printVisFxn__I
803439c0   xdc_runtime_Text_putLab__E
803439c0   xdc_runtime_Text_putLab__F
80346920   xdc_runtime_Text_putMod__E
80346920   xdc_runtime_Text_putMod__F
8033aea0   xdc_runtime_Text_putSite__E
8033aea0   xdc_runtime_Text_putSite__F
8037095c   xdc_runtime_Text_registryModsLastId__C
803578c0   xdc_runtime_Text_ropeText__E
803578c0   xdc_runtime_Text_ropeText__F
8037095e   xdc_runtime_Text_unnamedModsLastId__C
80348640   xdc_runtime_Text_visitRope2__I
80370938   xdc_runtime_Text_visitRopeFxn__C
80358ec0   xdc_runtime_Text_visitRope__I
80351860   xdc_runtime_Text_xprintf__I
80358700   xdc_runtime_Timestamp_SupportProxy_get32__E
80358720   xdc_runtime_Timestamp_SupportProxy_get64__E
803585a0   xdc_runtime_Timestamp_SupportProxy_getFreq__E
80358700   xdc_runtime_Timestamp_get32__E
80358700   xdc_runtime_Timestamp_get32__F
80358720   xdc_runtime_Timestamp_get64__E
80358720   xdc_runtime_Timestamp_get64__F
803585a0   xdc_runtime_Timestamp_getFreq__E
803585a0   xdc_runtime_Timestamp_getFreq__F
8030df60   xmc_setup


GLOBAL SYMBOLS: SORTED BY Symbol Address 

address    name
--------   ----
00000000   _argsize
00000001   __TI_args_main
00000001   xdc_runtime_Startup__EXECFXN__C
00000001   xdc_runtime_Startup__RESETFXN__C
00001000   __TI_STACK_SIZE
00800000   ti_ndk_config_Global_pBufMem
0084e000   ti_ndk_config_Global_pHdrMem
00852b00   gHostDesc
00856b00   ti_sysbios_knl_Task_Instance_State_0_stack__A
00857f00   ti_sysbios_knl_Task_Instance_State_1_stack__A
00859f00   ti_sysbios_knl_Task_Instance_State_2_stack__A
0085a700   gPAInst
0085a800   gMemL2Ram
0085abe8   gMemL3Ram
0085bb88   _stack
0085cb88   __TI_STACK_END
0085cc00   gPaTxQHnd
0085cc24   gTxReturnQHnd
0085cc28   gTxFreeQHnd
0085cc2c   gRxFreeQHnd
0085cc30   gRxQHnd
0085cc34   gPaCfgCmdRespQHnd
0085cc38   gRxFlowHnd
0085cc40   gPaL2Handles
0085cc68   gPaL3Handles
0085ccb8   gPaL4Handles
0085ce00   gHiPriAccumList
0085cf00   gAccChannelNum
0085cf04   gTxPort
0085cf08   gTxCounter
0085cf0c   gRxCounter
0085cf10   gTxDropCounter
0085cf14   gRxDropCounter
0085cf20   gGlobalFreeQHnd
0085cf28   gPassCpdmaTxChanHnd
0085cf50   gPassCpdmaRxChanHnd
0085cfb0   gPassCpdmaHnd
0085cfb4   gPAInstHnd
0085cfb8   gQPopErrorCounter
0085cfbc   gQPushErrorCounter
80000000   __ASM__
80000000   ti_sysbios_heaps_HeapMem_Instance_State_0_buf__A
80000070   __ISA__
80000088   __PLAT__
800000b0   __TARG__
800000d8   __TRDR__
80300000   nimu_gettxdrops
8030000c   nimu_getrxdrops
80300018   emac_display_linkstatus
80300078   Verify_Init
80300224   Switch_update_addr
8030026c   Setup_Tx
80300508   Setup_Rx
80300908   Init_Switch
803009e4   Init_PASS
80300a2c   Init_MDIO
80300a30   Init_MAC
80300b64   Init_Cpsw
80300d98   Add_MACAddress
80301578   EmacRxPktISR
80301e40   serial_num_isvalid
80301e70   platform_write_configure
80301e88   platform_uart_write
80301e98   platform_write
80301f98   platform_uart_set_baudrate
80301fc4   platform_delay
80302004   platform_uart_read
80302064   platform_uart_init
80302080   platform_get_phy_addr
80302084   platform_phy_link_status
803020d0   platform_offset_to_blocknpage
80302190   platform_led
803021b8   platform_get_coreid
803021c8   platform_internal_memory_test
80302604   platform_init
803028c8   platform_get_macaddr
80302924   platform_device_open
80302a2c   platform_device_read
80302b48   platform_device_close
80302c48   platform_get_info
80302ef8   platform_get_emac_info
80302f50   platform_external_memory_test
803030c0   platform_device_write_spare_data
80303130   platform_blocknpage_to_offset
803031c8   platform_device_write
803035b8   platform_device_read_spare_data
8030362c   platform_device_mark_block_bad
80303720   platform_device_erase_block
803037b4   platform_delaycycles
803037e0   Convert_CoreLocal2GlobalAddr
80303860   TCP6Input
80305240   TcpInput
80306c20   TcpOutput
80307e60   TCP6Output
80309000   res_mgr_stop_qmss
80309020   res_mgr_stop_cppi
803090e8   res_mgr_qmss_get_freeq
80309100   res_mgr_init_qmss
80309388   res_mgr_init_pass
80309714   res_mgr_init_cppi
80309a24   res_mgr_get_painstance
80309a34   res_mgr_cppi_get_passhandle
80309a4c   QMSS_QPUSHDESCSIZE
80309bb0   QMSS_QPUSH
80309d0c   QMSS_QPOP
80309ea0   httpClientProcess
8030aaa0   IPRxPacket
8030b6b0   NandReadSpareArea
8030b770   NandWriteDataBytes
8030b8c0   writeNandPage
8030bc2c   readNandPage
8030bee4   nandInit
8030beec   nandFlashBlockErase
8030bfa8   NandWriteSpareArea
8030c084   NandGetDetails
8030cc00   IPTxPacket
8030d5c0   lcpInput
8030df60   xmc_setup
8030df78   prog_pll1_values
8030e084   SetPaPllConfig
8030e18c   SetDDR3PllConfig
8030e278   PowerUpDomains
8030e390   DDR3Init
8030e5d4   CorePllcHwSetup
8030e80c   CorePllcGetHwSetup
8030f200   ti_sysbios_family_c64p_Exception_handler__I
8030faa0   xdc_runtime_System_doPrint__I
80310340   main
80310360   StackTest
80310ac4   EVM_init
80310b80   Qmss_insertMemoryRegion
80311360   ipcpInput
80311b40   SockSet
80312300   fdPoll
80312ac0   i2cEepromWriteBlock
80312c8c   i2cEepromWriteByteAddr
80312d90   i2cEepromWrite
80312e50   i2cEepromRead
80312f70   i2cEepromMacWrite
803130a4   i2cEepromMacRead
80313240   Pa_addMac
80313960   Sock6Set
803146e0   ICMPv6RecvRA
80314d80   Cppi_configureRxFlow
803153e0   Rt6Create
80315a40   ti_sysbios_knl_Task_Instance_finalize__F
80316060   ti_sysbios_heaps_HeapMem_alloc__E
80316660   ti_sysbios_knl_Semaphore_pend__E
80316c60   GetDisparityMapInline
80317240   ti_sysbios_heaps_HeapMem_free__E
80317820   IPReasm
80317de0   __c6xabi_divd
80318960   ICMPInput
80318f00   ti_sysbios_timers_timer64_Timer_Module_startup__E
80318f00   ti_sysbios_timers_timer64_Timer_Module_startup__F
803194a0   pppEvent
80319a20   Bind6New
80319f80   IPv6IPAddressToString
8031a4e0   Sock6Connect
8031aa20   SockNew
8031b460   httpSendStatusLine
8031b980   UdpInput
8031c340   Cppi_txChannelOpen
8031c800   LLIRxPacket
8031cca0   Sock6Recv
8031d140   SockRecv
8031d5e0   _printfi
8031da40   pppNew
8031dea0   spi_xfer
8031dff4   spi_write_word
8031e054   spi_release
8031e070   spi_read_word
8031e0e4   spi_cmd_write
8031e118   spi_cmd_read
8031e150   spi_cmd
8031e198   spi_claim
8031e300   Cppi_rxChannelOpen
8031e740   Sock6New
8031eb80   chapInput
8031efc0   fdSelect
80320080   TaskSleep
80320080   ti_sysbios_knl_Task_sleep__E
803204a0   Sock6Send
803208a0   efs_filecheck
80320ca0   ti_sysbios_knl_Task_Instance_init__F
803210a0   IPv6TxFragPacket
80321480   ti_sysbios_knl_Task_setPri__E
80321860   Cppi_initDescriptor
80321c20   IPv6TxPacket
803223a0   SockSend
80322760   TCP6TimeoutCheck
80322b20   TcpTimeoutCheck
80322ee0   fputs
80323324   nor_write
80323438   nor_read
803234ac   nor_init
80323514   nor_get_details
80323580   nor_erase
80323660   ICMPv6RxPacket
80323a00   NIMUIoctl
80323da0   RtCreate
80324140   SBRead
803244e0   papInput
80324880   Sock6Notify
80324c00   SockConnect
80324f80   SockNotify
80325300   dhcpPacketProcess
80325680   fpgaReadConfigurationRegister
803256f8   getFpgaDevID
80325738   getBoardVersion
80325778   fpgaWriteConfigurationRegister
803257f0   fpgaGetUserSwitch
803257f0   platform_get_switch_state
80325820   fpgaGetAMCDetect
80325844   fpgaEnableNorWriteProtect
80325870   fpgaEnableNandWriteProtect
803258a0   fpgaEnableEepromWriteProtect
803258cc   fpgaDisableNorWriteProtect
803258f8   fpgaDisableNandWriteProtect
80325928   fpgaDisableEepromWriteProtect
80325954   fpgaControlUserLEDs
80325a00   ICMPv6RecvRedirect
80325d60   ICMPv6SendDstUnreachable
803260c0   IGMPInput
80326780   LLITxIpPacket
80326ae0   ICMPv6RecvNS
80326e20   ICMPv6SendParameterProblem
80327160   ICMPv6SendTimeExceeded
803274a0   Pa_create
803277e0   Qmss_init
80327b20   mmAlloc
80327e60   pppoeSI
803281a0   CfgAddEntry
80328b00   inet_aton
80329140   configSerdes
803292b0   Init_SGMII
80329460   Sock6PcbBind
80329760   Udp6Input
80329a60   ti_sysbios_family_c64p_Hwi_dispatchC__I
8032a040   IPv6ParseExtnHeaders
8032a600   Pa_forwardResult
8032a8e0   Rt6Find
8032b180   Sock6PcbResolve
8032b460   UdpOutput
8032ba20   ti_sysbios_heaps_HeapMem_Instance_init__F
8032bd00   BindNew
8032bfc0   NodeAdd
8032c280   SB6Read
8032c540   pppInput
8032c800   DHCPOpen
8032caa0   Rt6Free
8032cd40   RtFind
8032cfe0   Sock6Close
8032d280   SockClose
8032d520   SockPcbResolve
8032d7c0   TCP6PrSetOption
8032da60   TcpPrSetOption
8032dfa0   ti_sysbios_knl_Clock_Instance_init__F
8032e240   ti_sysbios_knl_Clock_workFunc__E
8032e4e0   ti_sysbios_timers_timer64_Timer_deviceConfig__I
8032e780   ICMPGenPacket
8032ec80   LLI6TxIPPacket
8032ef00   Udp6Output
8032f180   __c6xabi_divf
8032fb80   Osal_qmssMtCsExit
8032fb84   Osal_qmssMtCsEnter
8032fb88   Osal_qmssMalloc
8032fbc0   Osal_qmssFree
8032fbe0   Osal_qmssEndMemAccess
8032fbe4   Osal_qmssCsExit
8032fbf4   Osal_qmssCsEnter
8032fc30   Osal_qmssBeginMemAccess
8032fc34   Osal_platformSpiCsExit
8032fc48   Osal_platformSpiCsEnter
8032fc84   Osal_platformMalloc
8032fcc0   Osal_platformFree
8032fce0   Osal_paMtCsExit
8032fce4   Osal_paMtCsEnter
8032fce8   Osal_paEndMemAccess
8032fcec   Osal_paBeginMemAccess
8032fcf0   Osal_nimuMalloc
8032fd28   Osal_nimuFree
8032fd48   Osal_cppiMalloc
8032fd80   Osal_cppiFree
8032fda0   Osal_cppiEndMemAccess
8032fda4   Osal_cppiCsExit
8032fdb4   Osal_cppiCsEnter
8032fdf8   Osal_cppiBeginMemAccess
8032fe00   xdc_runtime_Error_raiseX__E
8032fe00   xdc_runtime_Error_raiseX__F
803302e0   IPv6RxPacket
80330540   NIMUReceivePacket
803307a0   RawEthSockSet
80330a00   SB6Write
80330c60   SBWrite
80330ec0   SockPcbBind
80331120   TCP6GenPacket
80331380   httpParseRecv
80331840   ti_sysbios_family_c64p_Exception_internalHandler__I
80331aa0   ti_sysbios_knl_Semaphore_post__E
80331d00   xdc_runtime_Startup_startMods__I
80331f60   xdc_runtime_System_printfExtend__I
803321c0   Bind6Free
80332640   Cppi_open
80332880   DaemonNew
80332ac0   ICMPv6RecvNA
80332d00   ICMPv6SendNA
80332f40   ICMPv6SendNS
80333180   Pa_resetControl
803333c0   PipeRecv
80333600   RawInput
80333840   TcpGenPacket
80333a80   __c6xabi_divull
80334380   dhcpState
803345c0   fputc
80334800   TaskExit
80334800   ti_sysbios_knl_Task_exit__E
80334a40   xdc_runtime_LoggerBuf_write8__E
80334a40   xdc_runtime_LoggerBuf_write8__F
80334ea0   IPv6ParseFragHdr
803350c0   Raw6Output
803352e0   RawEthSockNew
80335940   dhcpVerifyMessage
80335d80   setvbuf
80335fa0   ti_sysbios_knl_Swi_run__I
803361c0   ti_sysbios_knl_Task_schedule__I
803363e0   ti_sysbios_knl_Task_startCore__E
80336600   xdc_runtime_Core_createObject__I
80336820   SendRequestForDimensions
80336834   SendInt32
80336854   SendImage
803368c4   ByteArrayToInt32
80336914   ReceiveInt32
803369a4   ReceiveImage
80336c20   LLI6New
80337020   Qmss_programAccumulator
80337220   RTCReport
80337620   ti_sysbios_family_c64p_Hwi_dispatchAlways
80337820   accept
80337a20   cppi_internal_heap_add
80338000   Rt6Modify
803385a0   dhcpSocketOpen
80338780   sendto
80338960   ti_sysbios_family_c64p_Exception_externalHandler__I
80338b40   ti_sysbios_knl_Task_checkStacks__E
80338d20   ti_sysbios_knl_Task_postInit__I
80338f00   ti_sysbios_timers_timer64_Timer_getFreq__E
803390e0   CfgExecute
803392a0   Cppi_channelClose
80339460   Cppi_initCfg
80339620   IPGetRoute
803397e0   LLIGenArpPacket
80339b60   Raw6Input
80339ee0   TcpTimeoutRexmt
8033a0a0   _LLITimeoutCheck
8033a5e0   fdClose
8033a7a0   UartWriteData
8033a7e0   UartSetBaudRate
8033a808   UartReadData
8033a814   UartReadBaudRate
8033a848   UartIsDataReady
8033a864   UartInit
8033a960   ti_sysbios_family_c64p_Exception_decodeMpfsr__I
8033ab20   ti_sysbios_gates_GateMutex_enter__E
8033ace0   ti_sysbios_timers_timer64_Timer_setPeriodMicroSecs__E
8033aea0   xdc_runtime_Text_putSite__E
8033aea0   xdc_runtime_Text_putSite__F
8033b060   Bind6Msg
8033b200   CfgRemoveEntry
8033b540   IPv6FragMsg
8033b880   NC_NetStart
8033ba20   NodeTreeFree
8033bbc0   Pa_downloadImage
8033bf00   SockCreatePacket
8033c240   TCP6TimeoutRexmt
8033c3e0   __c6xabi_divul
8033c580   dhcpBuildOptions
8033c720   getpeername
8033cc00   ti_sysbios_family_c66_Cache_block__I
8033cda0   ti_sysbios_heaps_HeapBuf_Module_startup__E
8033cda0   ti_sysbios_heaps_HeapBuf_Module_startup__F
8033cf40   ti_sysbios_timers_timer64_Timer_start__E
8033d0e0   xdc_runtime_LoggerBuf_write4__E
8033d0e0   xdc_runtime_LoggerBuf_write4__F
8033d280   Bind6GetGlobalAddress
8033d400   dtask_tcp_echo
8033d580   HOSTrename
8033d700   IGMPMsg
8033d880   NIMURegister
8033dd00   Sock6CreatePacket
8033e180   bind
8033e300   dhcpBuildRequest
8033e480   llEnter
8033e780   ti_sysbios_family_c64p_Exception_dispatch__E
8033e900   ti_sysbios_knl_Swi_schedule__I
8033ea80   ti_sysbios_knl_Task_unblockI__E
8033ec00   CfgGetEntry
8033ed60   CfgGetNextEntry
8033f2e0   PipeSend
8033f440   RawOutput
8033f700   RtWalkNext
8033f9c0   Sock6Check
8033fb20   Sock6PcbConnect
8033fc80   SockCheck
8033fde0   SockPcbConnect
803400a0   TCP6TimeoutKeep
80340200   TcpTimeoutKeep
80340360   authInit
80340780   setsockopt
803408e0   telnetClientProcess
80340a40   Bind6DADCheck
80340b80   CSL_chipReadReg
80340cc0   ExecOpen
80340e00   ICMPSendRtAdv
80340f40   IGMPJoin
80341080   IPv6DisplayIPAddress
80341300   LLINew
80341440   NodeFind
80341580   NodeWalk
803416c0   PBM_alloc
80341800   PBM_free
80341a80   SB6New
80341d00   Sock6Accept
80341e40   Sock6Listen
80341f80   SockAccept
803420c0   SockListen
80342200   SockPcbCtlError
80342340   _auto_init_elf
80342700   dhcpDecodeType
80342840   fseek
80342ac0   httpAuthenticationReq
80342c00   mmCopy
80342e80   recv
80342fc0   send
80343100   ti_sysbios_family_c64p_Exception_Module_startup__E
80343100   ti_sysbios_family_c64p_Exception_Module_startup__F
80343240   ti_sysbios_family_c64p_Hwi_Module_startup__E
80343240   ti_sysbios_family_c64p_Hwi_Module_startup__F
80343380   ti_sysbios_family_c66_Cache_Module_startup__E
80343380   ti_sysbios_family_c66_Cache_Module_startup__F
803434c0   ti_sysbios_knl_Semaphore_Instance_init__F
80343600   ti_sysbios_knl_Swi_post__E
80343740   ti_sysbios_knl_Task_Module_startup__E
80343740   ti_sysbios_knl_Task_Module_startup__F
80343880   ti_sysbios_knl_Task_blockI__E
803439c0   xdc_runtime_Text_putLab__E
803439c0   xdc_runtime_Text_putLab__F
80343c20   BindFree
80343d40   CfgFree
80343e60   DaemonFree
80343e60   TelnetClose
80343e60   httpClose
80343f80   FdWaitEvent
803440a0   IGMPLeaveHostGroup
803441c0   IPMsg
80344520   IPv6Init
80344640   IsICMPv6ErrorPkt
80344760   MD5Update
80344880   MLDJoinGroup
803449a0   NC_SystemOpen
80344ac0   NIMUAddEthernetHeader
80344be0   Qmss_disableAccumulator
80344d00   RawEthRxPacket
80344e20   RawEthTxPacket
80344f40   SBNew
803452a0   Sock6Disconnect
803453c0   Sock6Shutdown
80345600   SockShutdown
80345720   TCP6PrAttach
80345840   TcpPrAttach
80345960   TelnetOpen
80345a80   _RtNodeInsert
80345ba0   _closefile
80345de0   _mmInit
80346020   fdOpenSession
80346140   httpOpen
80346260   lcpOpen
80346380   lcpReject
803464a0   socket
803465c0   ti_sysbios_BIOS_rtsUnlock__I
803466e0   ti_sysbios_knl_Clock_startI__E
80346800   xdc_runtime_LoggerBuf_setFilterLevel__E
80346800   xdc_runtime_LoggerBuf_setFilterLevel__F
80346920   xdc_runtime_Text_putMod__E
80346920   xdc_runtime_Text_putMod__F
80346a40   CfgNew
80346b40   CfgSetExecuteOrder
80346c40   DbgPrintf
80346e40   IPv6GetSubnetMaskFromBits
80347040   RTCMsg
80347140   RawEthSockCheck
80347240   RtRedirect
80347340   SockValidateRoute
80347540   TCP6PrInherit
80347640   TCP6XmitTimer
80347740   TcpPrInherit
80347840   TcpXmitTimer
80347940   _RtNodeRemove
80347a40   _wrt_ok
80347b40   fdint_unlockfd
80347c40   listen
80347d40   mmFree
80347e40   ti_sysbios_family_c64p_EventCombiner_dispatch__E
80347e40   ti_sysbios_family_c64p_EventCombiner_dispatch__F
80347f40   ti_sysbios_knl_Swi_restoreHwi__E
80348040   ti_sysbios_knl_Task_Object__create__S
80348140   ti_sysbios_timers_timer64_Timer_initDevice__I
80348340   xdc_runtime_Core_deleteObject__I
80348440   xdc_runtime_LoggerBuf_getFilterLevel__E
80348440   xdc_runtime_LoggerBuf_getFilterLevel__F
80348540   xdc_runtime_Startup_exec__E
80348540   xdc_runtime_Startup_exec__F
80348640   xdc_runtime_Text_visitRope2__I
80348740   Bind6GetLinkLocalAddress
80348820   CfgGetEntryCnt
80348900   DHCPClose
803489e0   HOSTlseek
80348ac0   HOSTopen
80348c80   IGMPLeave
80348e40   IPv6Layer4ComputeChecksum
80348f20   LLI6Msg
80349000   LLI6Update
80349380   NodeDeRef
80349540   NodeTreeNew
80349620   PBMQ_enq
80349700   PBM_copy
803497e0   RawEthSockNotify
803498c0   RawEthSockPcbAttach
803499a0   RawEthSockSend
80349a80   Route6Msg
80349b60   RtDeRef
80349c40   RtRemove
80349d20   SBSetMax
80349e00   Sock6SpawnAbort
80349ee0   Sock6ValidateRoute
80349fc0   SockDisconnect
8034a0a0   SockSpawnAbort
8034a180   TCP6PrDetach
8034a260   TCP6PrDisconnect
8034a340   TCP6ValidateMetrics
8034a420   TcpPrDetach
8034a500   TcpPrDisconnect
8034a5e0   TcpValidateMetrics
8034a7a0   UdpChecksum
8034a880   VLANDeinit
8034a960   VLANReceivePacket
8034ab20   _LLIExpListInsert
8034ac00   _RtExpListInsert
8034adc0   atoi
8034aea0   close
8034af80   __TI_zero_init
8034b140   exit
8034b220   fdint_lockfd
8034b300   fflush
8034b4c0   llExit
8034b5a0   ltoa
8034b680   memset
8034b760   mmBulkAlloc
8034b840   pppFree
8034b920   printf
8034ba00   ti_sysbios_knl_Clock_start__E
8034bae0   xdc_runtime_Error_print__E
8034bae0   xdc_runtime_Error_print__F
8034bbc0   xdc_runtime_LoggerBuf_Object__create__S
8034bca0   xdc_runtime_Memory_alloc__E
8034bca0   xdc_runtime_Memory_alloc__F
8034bd80   HOSTread
8034be40   HOSTwrite
8034bfc0   LLIGetValidTime
8034c080   LLIMsg
8034c200   MLDLeaveGroup
8034c2c0   NIMUFindByName
8034c380   NS_BootTask
8034c500   NtIfIdx2Ip
8034c5c0   Qmss_setEoiVector
8034c680   Rt6FindDefaultRouter
8034c740   RtWalkBegin
8034c800   SB6Flush
8034c8c0   SB6SetMax
8034c980   SBFlush
8034ca40   Sock6IntAbort
8034cb00   Sock6PcbResolveChain
8034cbc0   Sock6PcbRtChange
8034cc80   SockIntAbort
8034cd40   SockPcbRtChange
8034ce00   TCP6Close
8034cec0   TCP6TimeoutSackRexmt
8034cf80   TaskGetEnv
8034d040   TcpChecksum
8034d100   TcpClose
8034d1c0   TcpTimeoutSackRexmt
8034d400   __cxa_finalize
8034d4c0   __c6xabi_divu
8034d4c0   __divu
8034d580   __c6xabi_remi
8034d580   __remi
8034d640   _doflush
8034d700   cppi_list_remove_node
8034d7c0   dhcpOptionsClear
8034d880   efs_fopen
8034d940   httpSendFullResponse
8034da00   mmZeroInit
8034dc40   pthread_mutex_lock
8034dd00   pthread_mutex_unlock
8034ddc0   pthread_once
8034de80   ti_ndk_config_Global_stackThread
8034df40   ti_sysbios_BIOS_errorRaiseHook__I
8034e000   ti_sysbios_heaps_HeapMem_getStats__E
8034e0c0   ti_sysbios_knl_Clock_logTick__E
8034e180   ti_sysbios_knl_Task_allBlockedFunction__I
8034e240   ti_sysbios_hal_Timer_TimerProxy_startup__E
8034e240   ti_sysbios_hal_Timer_startup__E
8034e240   ti_sysbios_timers_timer64_Timer_startup__E
8034e300   xdc_runtime_LoggerBuf_Instance_init__F
8034e3c0   xdc_runtime_System_formatNum__I
8034e480   CfgEntryDeRef
8034e520   CfgEntryGetData
8034e5c0   CfgGetImmediate
8034e7a0   Cppi_channelEnable
8034e840   FdSignalEvent
8034e8e0   HOSTunlink
8034e980   IPReasmFree
8034ea20   IPReasmTimeout
8034eac0   IPv6CompareAddress
8034eb60   LLIValidateRoute
8034ec00   MD5Final
8034eca0   NIMUShutdown
8034ed40   NIMUUnregister
8034ede0   NtAddNetwork
8034ee80   PBM_open
8034ef20   PipeCheck
8034efc0   Qmss_queueClose
8034f060   Qmss_startCfg
8034f100   RouteMsg
8034f240   SB6Free
8034f2e0   SBFree
8034f380   SemCreate
8034f420   SemCreateBinary
8034f4c0   Sock6CleanPcb
8034f560   Sock6GetName
8034f600   SockBind
8034f6a0   SockCleanPcb
8034f740   SockPcbResolveChain
8034f7e0   TCP6Drop
8034f880   TCP6PrCtlError
8034f920   TCP6PrSend
8034f9c0   TCP6PrSendOOB
8034fa60   TaskCreate
8034fb00   TcpDrop
8034fba0   TcpPrCtlError
8034fc40   TcpPrSend
8034fce0   TcpPrSendOOB
8034fd80   TimerNew
8034fec0   _LLITimeoutFlush
80350000   __c6xabi_remu
80350000   __remu
803500a0   _c_int00
80350140   _cleanup
803503c0   authStart
80350460   cppi_internal_heap_malloc
80350500   cppi_list_cat
803505a0   dhcpBuildDecline
803506e0   efs_filesend
80350780   fdCloseSession
803508c0   lcpInit
80350aa0   llTimerTick
80350b40   lseek
80350be0   memcpy
80350c80   mmBulkFree
80350fa0   stricmp
80351040   strstr
803510e0   ti_sysbios_family_c64p_Hwi_eventMap__E
80351180   ti_sysbios_family_c64p_Hwi_getStackInfo__E
80351180   ti_sysbios_hal_Hwi_HwiProxy_getStackInfo__E
80351180   ti_sysbios_hal_Hwi_getStackInfo__E
80351220   ti_sysbios_heaps_HeapMem_init__I
803512c0   ti_sysbios_knl_Clock_Object__create__S
80351360   ti_sysbios_knl_Idle_run__E
80351400   ti_sysbios_knl_Semaphore_pendTimeout__I
803514a0   ti_sysbios_knl_Task_deleteTerminatedTasksFunc__I
80351540   ti_sysbios_knl_Task_processVitalTaskFlag__I
803515e0   ti_sysbios_timers_timer64_Timer_stop__E
80351680   write
80351720   xdc_runtime_Assert_raise__I
803517c0   xdc_runtime_LoggerBuf_Module_startup__E
803517c0   xdc_runtime_LoggerBuf_Module_startup__F
80351860   xdc_runtime_Text_xprintf__I
80351900   Cppi_setCpdmaLoopback
80351a00   HOSTclose
80351a80   ICMPChecksum
80351b80   ICMPv6RecvRS
80351c80   IPv6GetRoute
80351d00   LLI6Free
80351e00   NIMUInit
80351e80   PBMQ_deq
80351f80   Pa_getBufferReq
80352000   PipeClose
80352080   Qmss_getMemRegQueueHandle
80352100   Qmss_queueOpen
80352180   RawEthSockClose
80352200   RawEthSockPcbDetach
80352280   Rt6Update
80352300   RtSetFailure
80352380   RtSetTimeout
80352400   Sock6Bind
80352480   Sock6PcbCleanup
80352500   SockGetName
80352580   SockPcbCleanup
80352600   SockPcbDetach
80352680   TCP6PrListen
80352700   TaskSetEnv
80352780   TcpPrListen
80352800   TimerHSTick
80352980   _LLIExpListRemove
80352a80   _RtExpListRemove
80352b00   __TI_resource_lock
80352b80   __c6xabi_llshl
80352c00   ti_sysbios_family_c62_TaskSupport_swap__E
80352c00   ti_sysbios_knl_Task_SupportProxy_swap__E
80352c80   cppi_internal_heap_cache_begin
80352d00   cppi_list_remove
80352d80   dhcpSocketClose
80352e00   efs_fclose
80352f00   fdint_waitevent
80352f80   httpSendEntityLength
80353000   httpSendErrorResponse
80353080   llTimerGetTime
80353100   malloc
80353280   pthread_mutex_init
80353300   readmsg
80353480   evmI2CInit
80353500   ti_sysbios_BIOS_exitFunc__I
80353580   ti_sysbios_BIOS_registerRTSLock__I
80353600   ti_sysbios_gates_GateHwi_Object__create__S
80353680   ti_sysbios_gates_GateMutex_Object__create__S
80353700   ti_sysbios_hal_Hwi_checkStack
80353780   ti_sysbios_hal_Hwi_initStack
80353800   ti_sysbios_heaps_HeapMem_Object__create__S
80353880   ti_sysbios_knl_Clock_Module_startup__E
80353880   ti_sysbios_knl_Clock_Module_startup__F
80353900   ti_sysbios_knl_Clock_doTick__I
80353980   ti_sysbios_knl_Clock_getTicks__E
80353a00   ti_sysbios_knl_Queue_Object__create__S
80353a80   ti_sysbios_knl_Semaphore_Object__create__S
80353b00   ti_sysbios_knl_Swi_startup__E
80353b80   ti_sysbios_knl_Task_restore__E
80353c00   ti_sysbios_timers_timer64_Timer_getCount__E
80353c00   ti_sysbios_timers_timer64_Timer_getExpiredCounts__E
80353c80   ti_sysbios_timers_timer64_Timer_getPeriod__E
80353d00   writemsg
80353d58   C$$IO$$
80353d80   xdc_runtime_Core_assignLabel__I
80353e00   xdc_runtime_Core_assignParams__I
80353e80   xdc_runtime_LoggerBuf_filterOutEvent__I
80353f00   xdc_runtime_System_atexit__E
80353f00   xdc_runtime_System_atexit__F
80353f80   xdc_runtime_System_putchar__I
80354000   xdc_runtime_System_rtsExit__I
80354080   xdc_runtime_Text_printVisFxn__I
80354100   Bind6FindByIF
80354160   Bind6IF2IPHost
803541c0   BindFindByHost
80354220   BindFindByIF
80354280   BindFindByNet
803542e0   BindGetIFByDBCast
80354340   BindIF2IPHost
803543a0   CfgEntryInfo
80354400   CfgSetService
80354520   IGMPTestGroup
80354580   IPChecksum
803545e0   LLIFree
80354640   NC_SystemClose
803546a0   NIMUAddHeader
80354700   NIMUCreatePacket
80354760   NIMUFindByIndex
803547c0   NIMUPacketService
80354820   NIMUPacketServiceCheck
80354880   NIMUSendPacket
803548e0   NS_PreBoot
80354940   NodeGetRt
80354a00   RTCAddHook
80354a60   RTCRemoveHook
80354ac0   RawEthSockPcbCleanup
80354b20   RawEthSockPcbFind
80354b80   Rt6GetNetworkAddr
80354be0   RtWalkEnd
80354ca0   Sock6PcbDetach
80354d00   Sock6PrCtlError
80354d60   Sock6PrDetach
80354dc0   SockPrCtlError
80354e20   SockPrDetach
80354e80   TCP6PrConnect
80354ee0   TCP6SetPersist
80354f40   TCP6TimeoutPersist
80354fa0   TcpPrConnect
80355000   TcpSetPersist
80355060   TcpTimeoutPersist
80355180   VLANInit
80355240   __c6xabi_frcmpyd_div
803552a0   __c6xabi_llshru
80355300   _subcull
80355360   cppi_list_add
803553c0   cppi_list_cache_invalidate
803554e0   dhcpBuildDiscover
80355540   dhcpPacketReceive
803555a0   dhcpPacketSend
80355600   fdSelectAbort
80355660   fdint_clearevent
803556c0   fdint_getfdt
80355720   fdint_setevent
80355780   fdsetTestEntry
803557e0   httpSendClientStr
80355840   ipcpInit
803558a0   ipcpStart
80355900   lcpClose
80355960   list_cat
803559c0   list_remove_node
80355a20   memccpy
80355ba0   pppoeInput
80355c00   pthread_mutex_destroy
80355c60   ti_sysbios_BIOS_rtsLock__I
80355cc0   ti_sysbios_family_c62_TaskSupport_start__E
80355cc0   ti_sysbios_knl_Task_SupportProxy_start__E
80355d20   ti_sysbios_family_c64p_EventCombiner_Module_startup__E
80355d20   ti_sysbios_family_c64p_EventCombiner_Module_startup__F
80355d80   ti_sysbios_family_c64p_EventCombiner_dispatchPlug__E
80355d80   ti_sysbios_family_c64p_EventCombiner_dispatchPlug__F
80355de0   ti_sysbios_family_c64p_EventCombiner_unused__E
80355de0   ti_sysbios_family_c64p_EventCombiner_unused__F
80355e40   ti_sysbios_family_c64p_Hwi_restoreInterrupt__E
80355e40   ti_sysbios_hal_Hwi_HwiProxy_restoreInterrupt__E
80355e40   ti_sysbios_hal_Hwi_restoreInterrupt__E
80355ea0   ti_sysbios_gates_GateMutex_Instance_init__F
80355f00   ti_sysbios_gates_GateMutex_Object__delete__S
80355f60   ti_sysbios_knl_Semaphore_Object__delete__S
80355fc0   ti_sysbios_knl_Swi_Module_startup__E
80355fc0   ti_sysbios_knl_Swi_Module_startup__F
80356020   ti_sysbios_knl_Task_Object__delete__S
80356080   ti_sysbios_knl_Task_enter__I
803560e0   ti_sysbios_knl_Task_sleepTimeout__I
80356140   remove
80356140   unlink
803561a0   vsprintf
80356200   xdc_runtime_LoggerBuf_Object__delete__S
80356260   xdc_runtime_Memory_calloc__E
80356260   xdc_runtime_Memory_calloc__F
803562c0   xdc_runtime_SysStd_abort__E
803562c0   xdc_runtime_SysStd_abort__F
803562c0   xdc_runtime_System_SupportProxy_abort__E
80356320   xdc_runtime_System_aprintf_va__E
80356320   xdc_runtime_System_aprintf_va__F
80356320   xdc_runtime_System_avprintf__E
80356320   xdc_runtime_System_avprintf__F
80356380   xdc_runtime_System_printf_va__E
80356380   xdc_runtime_System_printf_va__F
80356380   xdc_runtime_System_vprintf__E
80356380   xdc_runtime_System_vprintf__F
803563e0   xdc_runtime_Text_cordText__E
803563e0   xdc_runtime_Text_cordText__F
80356440   Bind6FindByHost
80356480   Bind6FindByNet
803564c0   BindGetIP
80356500   ExecClose
80356540   ExecTimer
80356580   IPv6IsLinkLocal
803565c0   IPv6IsMulticast
80356600   LLI6IsValid
80356640   MD5Init
80356680   MLDTestGroup
803566c0   NC_BootComplete
80356700   NDK_hookCreate
80356740   NDK_sprintf
80356780   NtRemoveNetwork
803567c0   Qmss_ackInterrupt
80356800   Qmss_getMemRegDescSize
80356840   RawEthSockPcbInit
803568c0   Rt6IsDefaultRoute
80356900   Sock6PcbAttach
80356940   Sock6SetOOBMark
80356980   SockPcbAttach
803569c0   SockSetOOBMark
80356a00   TCP6TimeoutRemove
80356a40   TCP6TimeoutWait2
80356a80   TaskDestroy
80356ac0   TcpTimeoutRemove
80356b00   TcpTimeoutWait2
80356b40   __TI_data_synch_WB
80356b80   __TI_data_synch_WBINV
80356bc0   __TI_resource_unlock
80356c00   __c6xabi_isinf
80356c80   __c6xabi_call_stub
80356c80   __call_stub
80356cc0   __c6xabi_strasgi_64plus
80356cc0   __strasgi_64plus
80356d00   _args_main
80356d40   _llTimerInit
80356dc0   ti_sysbios_family_c62_TaskSupport_buildTaskStack
80356e00   ti_sysbios_family_xxx_Hwi_switchToIsrStack
80356e40   efs_loadfunction
80356e80   fdint_freefdt
80356ec0   free
80356f00   inet_addr
80356f80   list_add
80356fc0   list_remove
80357040   pthread_self
80357080   ti_sysbios_BIOS_startFunc__I
803570c0   ti_sysbios_family_c64p_EventCombiner_disableEvent__E
803570c0   ti_sysbios_family_c64p_EventCombiner_disableEvent__F
80357100   ti_sysbios_family_c64p_EventCombiner_enableEvent__E
80357100   ti_sysbios_family_c64p_EventCombiner_enableEvent__F
80357140   ti_sysbios_family_c64p_Hwi_Module__startupDone__F
80357140   ti_sysbios_family_c64p_Hwi_Module__startupDone__S
80357180   ti_sysbios_family_c64p_Hwi_disableInterrupt__E
80357180   ti_sysbios_hal_Hwi_HwiProxy_disableInterrupt__E
80357180   ti_sysbios_hal_Hwi_disableInterrupt__E
803571c0   ti_sysbios_family_c64p_Hwi_enableInterrupt__E
803571c0   ti_sysbios_hal_Hwi_HwiProxy_enableInterrupt__E
803571c0   ti_sysbios_hal_Hwi_enableInterrupt__E
80357200   ti_sysbios_gates_GateHwi_Handle__label__S
80357240   ti_sysbios_gates_GateHwi_Object__delete__S
80357280   ti_sysbios_gates_GateMutex_Handle__label__S
803572c0   ti_sysbios_gates_GateMutex_leave__E
80357300   ti_sysbios_hal_Timer_Module__startupDone__F
80357300   ti_sysbios_hal_Timer_Module__startupDone__S
80357340   ti_sysbios_heaps_HeapMem_Handle__label__S
80357380   ti_sysbios_heaps_HeapMem_Object__delete__S
803573c0   ti_sysbios_heaps_HeapMem_Object__get__S
80357400   ti_sysbios_knl_Semaphore_Object__destruct__S
80357440   ti_sysbios_knl_Swi_Object__get__S
80357480   ti_sysbios_knl_Task_Object__get__S
803574c0   ti_sysbios_timers_timer64_Timer_Module__startupDone__F
803574c0   ti_sysbios_timers_timer64_Timer_Module__startupDone__S
80357500   xdc_runtime_Error_check__E
80357500   xdc_runtime_Error_check__F
80357540   xdc_runtime_Error_init__E
80357540   xdc_runtime_Error_init__F
80357580   xdc_runtime_Gate_leaveSystem__E
80357580   xdc_runtime_Gate_leaveSystem__F
803575c0   xdc_runtime_LoggerBuf_Handle__label__S
80357600   xdc_runtime_LoggerBuf_Instance_finalize__F
80357640   xdc_runtime_LoggerBuf_Object__get__S
80357680   xdc_runtime_LoggerBuf_write0__E
80357680   xdc_runtime_LoggerBuf_write0__F
803576c0   xdc_runtime_LoggerBuf_write1__E
803576c0   xdc_runtime_LoggerBuf_write1__F
80357700   xdc_runtime_LoggerBuf_write2__E
80357700   xdc_runtime_LoggerBuf_write2__F
80357740   xdc_runtime_Memory_free__E
80357740   xdc_runtime_Memory_free__F
80357780   xdc_runtime_Registry_findById__E
80357780   xdc_runtime_Registry_findById__F
803577c0   xdc_runtime_System_abort__E
803577c0   xdc_runtime_System_abort__F
80357800   xdc_runtime_System_aprintf__E
80357840   xdc_runtime_System_printf__E
80357880   NDK_vsprintf
80357880   xdc_runtime_System_sprintf_va__E
80357880   xdc_runtime_System_sprintf_va__F
80357880   xdc_runtime_System_vsprintf__E
80357880   xdc_runtime_System_vsprintf__F
803578c0   xdc_runtime_Text_ropeText__E
803578c0   xdc_runtime_Text_ropeText__F
80357900   Bind6GetInterfaceHandle
80357920   Bind6GetLifetime
80357940   Bind6SetLifetime
80357960   BindGetFirst
80357980   BindGetIF
803579a0   BindGetNext
803579c0   BindIFNet2IPHost
803579e0   BindIPHost2IF
80357a00   CfgSetDefault
80357a20   Cppi_init
80357a40   ExecHRef
80357a60   ExecLowResource
80357a80   IPRtChange
80357aa0   LED_TOGGLE
80357ac0   LLI6GetNetDevice
80357ae0   LLI6IncRefCount
80357b00   LLI6IsDead
80357b20   LLI6IsRouter
80357b40   LLI6SetIncomplete
80357b60   NC_IPUpdate
80357b80   NC_NetStop
80357ba0   NDK_hookInit
80357bc0   NIMUGetRsvdSizeInfo
80357be0   NIMUSetRsvdSizeInfo
80357c00   NatMsg
80357c20   NodeSetRt
80357c40   NotifyLowResource
80357c60   OEMCacheClean
80357c80   OEMSysCritOff
80357ca0   OEMSysCritOn
80357cc0   PBM_close
80357ce0   Qmss_getQueueNumber
80357d00   Qmss_start
80357d20   RawEthSockPrAttach
80357d40   RawEthSockPrDetach
80357d60   Rt6GetIF
80357d80   Rt6GetLLI
80357da0   Rt6GetMTU
80357dc0   Rt6IncRefCount
80357de0   Rt6IsLocalRoute
80357e00   SemDelete
80357e20   SemPend
80357e40   SemPost
80357e60   SemReset
80357e80   Sock6PrAttach
80357ea0   Sock6SetOOBData
80357ec0   SockPrAttach
80357ee0   SockSetOOBData
80357f00   TCP6PrRecv
80357f20   TCP6TimeoutAdd
80357f40   TaskBlock
80357f60   TaskSelf
80357f80   TaskSetPri
80357fa0   TcpPrRecv
80357fc0   TcpTimeoutAdd
80357fe0   TimerFree
80358000   _TaskInit
80358020   _TaskShutdown
80358040   __TI_data_synch_INV
80358060   __c6xabi_negll
80358080   __cxa_atexit
803580a0   __cxa_ia64_exit
803580c0   __c6xabi_pop_rts
803580c0   __pop_rts
803580e0   __c6xabi_push_rts
803580e0   __push_rts
80358100   __xdc__init
80358120   _llSerialInit
80358140   _llSerialServiceCheck
80358160   _llSerialShutdown
80358180   _llTimerShutdown
803581a0   _llUserLedInit
803581c0   _llUserLedShutdown
803581e0   _nop
80358260   _register_lock
80358280   _register_unlock
803582a0   ti_sysbios_family_c62_TaskSupport_glue
803582c0   ti_sysbios_family_xxx_Hwi_switchToTaskStack
803582e0   C$$EXIT
803582e0   abort
80358300   atexit
80358320   cppi_internal_heap_free
80358340   cppi_list_get_head
80358360   cppi_list_get_next
80358380   __TI_decompress_none
803583a0   __TI_decompress_rle24
803583e0   efs_getfilesize
80358400   fdint_signaltimeout
80358420   list_get_head
80358440   list_get_next
80358460   llSerialService
80358480   llTimerGetStartTime
80358500   pthread_equal
80358520   putc
80358540   putchar
80358560   ti_sysbios_BIOS_RtsGateProxy_enter__E
80358580   ti_sysbios_BIOS_RtsGateProxy_leave__E
803585a0   ti_sysbios_BIOS_getCpuFreq__E
803585a0   ti_sysbios_family_c64p_TimestampProvider_getFreq__E
803585a0   xdc_runtime_LoggerBuf_TimestampProxy_getFreq__E
803585a0   xdc_runtime_Timestamp_SupportProxy_getFreq__E
803585a0   xdc_runtime_Timestamp_getFreq__E
803585a0   xdc_runtime_Timestamp_getFreq__F
803585c0   ti_sysbios_BIOS_nullFunc__I
803585e0   ti_sysbios_BIOS_setThreadType__E
80358600   ti_sysbios_BIOS_start__E
80358620   ti_sysbios_family_c62_TaskSupport_Module__startupDone__S
80358640   ti_sysbios_family_c62_TaskSupport_checkStack__E
80358640   ti_sysbios_knl_Task_SupportProxy_checkStack__E
80358660   ti_sysbios_family_c62_TaskSupport_getStackAlignment__E
80358660   ti_sysbios_knl_Task_SupportProxy_getStackAlignment__E
80358680   ti_sysbios_family_c64p_Hwi_clearInterrupt__E
80358680   ti_sysbios_hal_Hwi_HwiProxy_clearInterrupt__E
80358680   ti_sysbios_hal_Hwi_clearInterrupt__E
803586a0   ti_sysbios_family_c64p_Hwi_startup__E
803586a0   ti_sysbios_hal_Hwi_HwiProxy_startup__E
803586a0   ti_sysbios_hal_Hwi_startup__E
803586c0   ti_sysbios_family_c64p_Hwi_switchFromBootStack__E
803586c0   ti_sysbios_hal_Hwi_HwiProxy_switchFromBootStack__E
803586c0   ti_sysbios_hal_Hwi_switchFromBootStack__E
803586e0   ti_sysbios_family_c64p_TimestampProvider_Module_startup__E
803586e0   ti_sysbios_family_c64p_TimestampProvider_Module_startup__F
80358700   ti_sysbios_family_c64p_TimestampProvider_get32__E
80358700   xdc_runtime_LoggerBuf_TimestampProxy_get32__E
80358700   xdc_runtime_Timestamp_SupportProxy_get32__E
80358700   xdc_runtime_Timestamp_get32__E
80358700   xdc_runtime_Timestamp_get32__F
80358720   ti_sysbios_family_c64p_TimestampProvider_get64__E
80358720   xdc_runtime_LoggerBuf_TimestampProxy_get64__E
80358720   xdc_runtime_Timestamp_SupportProxy_get64__E
80358720   xdc_runtime_Timestamp_get64__E
80358720   xdc_runtime_Timestamp_get64__F
80358740   ti_sysbios_family_c64p_tci6488_TimerSupport_enable__E
80358740   ti_sysbios_timers_timer64_Timer_TimerSupportProxy_enable__E
80358760   ti_sysbios_family_c66_Cache_wbInv__E
80358760   ti_sysbios_hal_Cache_CacheProxy_wbInv__E
80358760   ti_sysbios_hal_Cache_wbInv__E
80358780   ti_sysbios_gates_GateHwi_Instance_init__F
803587a0   ti_sysbios_gates_GateHwi_enter__E
803587c0   ti_sysbios_gates_GateHwi_leave__E
803587e0   ti_sysbios_gates_GateHwi_query__E
803587e0   ti_sysbios_gates_GateHwi_query__F
803587e0   xdc_runtime_LoggerBuf_Module_GateProxy_query__E
803587e0   xdc_runtime_Main_Module_GateProxy_query__E
803587e0   xdc_runtime_System_Module_GateProxy_query__E
80358800   ti_sysbios_gates_GateMutex_Instance_finalize__F
80358820   ti_sysbios_BIOS_RtsGateProxy_query__E
80358820   ti_sysbios_gates_GateMutex_query__E
80358820   ti_sysbios_gates_GateMutex_query__F
80358820   ti_sysbios_heaps_HeapMem_Module_GateProxy_query__E
80358840   ti_sysbios_hal_Hwi_HwiProxy_Module__startupDone__S
80358860   ti_sysbios_hal_Hwi_Module_startup__E
80358860   ti_sysbios_hal_Hwi_Module_startup__F
80358880   ti_sysbios_hal_Timer_Module_startup__E
80358880   ti_sysbios_hal_Timer_Module_startup__F
803588a0   ti_sysbios_hal_Timer_TimerProxy_Module__startupDone__S
803588c0   ti_sysbios_hal_Timer_TimerProxy_getExpiredCounts__E
803588e0   ti_sysbios_hal_Timer_TimerProxy_getPeriod__E
80358900   ti_sysbios_hal_Timer_TimerProxy_setNextTick__E
80358920   ti_sysbios_heaps_HeapBuf_Object__get__S
80358940   ti_sysbios_heaps_HeapMem_Module_GateProxy_enter__E
80358960   ti_sysbios_heaps_HeapMem_Module_GateProxy_leave__E
80358980   ti_sysbios_heaps_HeapMem_isBlocking__E
803589a0   ti_sysbios_knl_Clock_Params__init__S
803589c0   ti_sysbios_knl_Idle_loop__E
803589e0   ti_sysbios_knl_Queue_Instance_init__F
80358a00   ti_sysbios_knl_Queue_Object__destruct__S
80358a20   ti_sysbios_knl_Queue_Object__get__S
80358a40   ti_sysbios_knl_Queue_empty__E
80358a60   ti_sysbios_knl_Semaphore_Instance_finalize__F
80358a80   ti_sysbios_knl_Semaphore_Params__init__S
80358aa0   ti_sysbios_knl_Semaphore_reset__E
80358ac0   ti_sysbios_knl_Swi_disable__E
80358ae0   ti_sysbios_knl_Task_Object__first__S
80358b00   ti_sysbios_knl_Task_Object__next__S
80358b20   ti_sysbios_knl_Task_Params__init__S
80358b40   ti_sysbios_knl_Task_SupportProxy_Module__startupDone__S
80358b60   ti_sysbios_knl_Task_disable__E
80358b80   ti_sysbios_knl_Task_getHookContext__E
80358ba0   ti_sysbios_knl_Task_self__E
80358bc0   ti_sysbios_knl_Task_setHookContext__E
80358be0   ti_sysbios_knl_Task_startup__E
80358c00   ti_sysbios_timers_timer64_Timer_setNextTick__E
80358c20   xdc_runtime_Error_getMsg__E
80358c20   xdc_runtime_Error_getMsg__F
80358c40   xdc_runtime_Gate_enterSystem__E
80358c40   xdc_runtime_Gate_enterSystem__F
80358ca0   xdc_runtime_LoggerBuf_Module_GateProxy_enter__E
80358cc0   xdc_runtime_LoggerBuf_Module_GateProxy_leave__E
80358ce0   xdc_runtime_LoggerBuf_disable__E
80358ce0   xdc_runtime_LoggerBuf_disable__F
80358d00   xdc_runtime_LoggerBuf_enable__E
80358d00   xdc_runtime_LoggerBuf_enable__F
80358d20   xdc_runtime_Memory_HeapProxy_alloc__E
80358d40   xdc_runtime_Memory_HeapProxy_free__E
80358d60   xdc_runtime_Startup_exec__I
80358d80   xdc_runtime_Startup_reset__I
80358da0   xdc_runtime_SysStd_exit__E
80358da0   xdc_runtime_SysStd_exit__F
80358da0   xdc_runtime_System_SupportProxy_exit__E
80358dc0   xdc_runtime_SysStd_putch__E
80358dc0   xdc_runtime_SysStd_putch__F
80358dc0   xdc_runtime_System_SupportProxy_putch__E
80358de0   xdc_runtime_SysStd_ready__E
80358de0   xdc_runtime_SysStd_ready__F
80358de0   xdc_runtime_System_SupportProxy_ready__E
80358e00   xdc_runtime_System_Module_GateProxy_enter__E
80358e20   xdc_runtime_System_Module_GateProxy_leave__E
80358e40   xdc_runtime_System_Module_startup__E
80358e40   xdc_runtime_System_Module_startup__F
80358e60   xdc_runtime_System_exit__E
80358e60   xdc_runtime_System_exit__F
80358e80   xdc_runtime_System_lastFxn__I
80358ea0   xdc_runtime_System_snprintf_va__E
80358ea0   xdc_runtime_System_snprintf_va__F
80358ea0   xdc_runtime_System_vsnprintf__E
80358ea0   xdc_runtime_System_vsnprintf__F
80358ec0   xdc_runtime_Text_visitRope__I
80358ee0   ti_ndk_config_Global_pit
803590a0   ti_ndk_config_Global_pitBuffer
803650a0   ti_sysbios_knl_Task_Instance_State_0_hookEnv__A
803650a8   ti_sysbios_knl_Task_Instance_State_1_hookEnv__A
803650b0   ti_sysbios_knl_Task_Instance_State_2_hookEnv__A
803650b8   xdc_runtime_LoggerBuf_Instance_State_0_entryArr__A
80366070   _tmpnams
803661b0   qmssLObj
803664b8   IPV6_LINKLOCALMASK
803664c8   IPV6_MULTICASTMASK
803664d8   IPV6_UNSPECIFIED_ADDRESS
803664e8   IPV6_LOOPBACK_ADDRESS
803664f8   IPV6_HOST_MASK
80366508   IPV6_ALL_NODES_ADDRESS
80366518   IPV6_ALL_ROUTER_ADDRESS
80366528   ipv6mcb
80366580   tcps
80366638   tpseudo
80366644   tcp6_stats
803666fc   raweth_pcb
80366700   _ICMPIn
80366750   _ICMPOut
8036679c   gPlatformInfo
80366830   BlockMax
80366850   BlockCount
80366870   PageMax
80366890   PageCount
803668ac   ips
80366914   nimu_mcb
80366978   gI2cBlock
803669bc   udps
803669e0   upseudo
803669f0   nimuGlobalConfigParams
80366a00   coreKey
80366a20   vlan_mcb
80366a48   udp6_stats
80366a70   gCppiCfg
80366a90   icmp6stats
80366ac4   stkEvent
80366ad4   raws
80366ae4   raw6_stats
80366af4   raweths
80366b04   PBMQ_free
80366b10   c1
803688d8   m
8036a188   xdc_runtime_Text_charTab__A
8036b780   c2
8036d768   acc48_le
8036dd98   ti_sysbios_family_c66_Cache_marvalues__C
8036ef80   _ctypes_
8036f082   ti_sysbios_BIOS_Module__id__C
8036f088   xdc_runtime_Text_nodeTab__A
8036f8ce   ti_sysbios_family_c64p_EventCombiner_Module__id__C
8036fa60   pap_pdsp_const_reg_map
8036fc82   ti_sysbios_family_c64p_Exception_Module__id__C
8036fdde   ti_sysbios_family_c64p_Exception_enableExternalMPC__C
8036fde0   Code2Err
8036ffd2   ti_sysbios_family_c64p_Exception_enablePrint__C
8036ffd4   ti_sysbios_knl_Task_Object__PARAMS__C
80370010   xdc_runtime_LoggerBuf_Module__FXNS__C
80370050   xdc_runtime_Startup_sfxnTab__A
80370122   ti_sysbios_family_c64p_Exception_useInternalBuffer__C
80370124   ti_sysbios_BIOS_Module__diagsEnabled__C
80370128   ti_sysbios_knl_Task_hooks__A
803701dc   ti_sysbios_heaps_HeapMem_Module__FXNS__C
80370204   xdc_runtime_LoggerBuf_Object__PARAMS__C
80370254   ti_sysbios_gates_GateHwi_Module__FXNS__C
80370278   ti_sysbios_gates_GateMutex_Module__FXNS__C
8037029c   ti_sysbios_heaps_HeapMem_Object__PARAMS__C
803702c0   ti_sysbios_knl_Clock_Object__PARAMS__C
803702e4   ti_sysbios_knl_Semaphore_Object__PARAMS__C
8037032c   ti_sysbios_gates_GateHwi_Object__DESC__C
8037034c   ti_sysbios_gates_GateMutex_Object__DESC__C
8037036c   ti_sysbios_heaps_HeapMem_Object__DESC__C
8037038c   ti_sysbios_knl_Clock_Object__DESC__C
803703ac   ti_sysbios_knl_Queue_Object__DESC__C
803703cc   ti_sysbios_knl_Semaphore_Object__DESC__C
803703ec   ti_sysbios_knl_Task_Object__DESC__C
8037040c   xdc_runtime_LoggerBuf_Object__DESC__C
8037042c   ti_sysbios_BIOS_Module__diagsIncluded__C
8037048a   ti_sysbios_family_c64p_Hwi_Module__id__C
8037048c   ti_sysbios_BIOS_Module__diagsMask__C
80370490   xdc_runtime_Startup_sfxnRts__A
803704ac   ti_sysbios_BIOS_installedErrorHook__C
80370510   ti_sysbios_gates_GateHwi_Object__PARAMS__C
80370528   ti_sysbios_gates_GateMutex_Object__PARAMS__C
80370540   ti_sysbios_knl_Queue_Object__PARAMS__C
80370586   ti_sysbios_family_c64p_Hwi_Module__loggerDefined__C
803705f2   ti_sysbios_gates_GateMutex_Module__id__C
803705f4   ti_sysbios_family_c62_TaskSupport_stackAlignment__C
803705f8   paMemAligns
80370608   ti_sysbios_family_c64p_EventCombiner_EVTMASK__C
80370632   ti_sysbios_hal_Hwi_Module__id__C
80370634   ti_sysbios_family_c66_Cache_initSize__C
8037064c   ti_sysbios_family_c64p_EventCombiner_E_unpluggedEvent__C
8037065a   ti_sysbios_heaps_HeapMem_Module__id__C
8037065c   ti_sysbios_family_c64p_Exception_E_exceptionMax__C
8037066a   ti_sysbios_knl_Clock_Module__id__C
8037066c   ti_sysbios_family_c64p_Exception_E_exceptionMin__C
80370698   ti_sysbios_knl_Idle_coreList__A
803706a0   ti_sysbios_knl_Idle_coreList__C
803706a8   ti_sysbios_knl_Idle_funcList__A
803706b0   ti_sysbios_knl_Idle_funcList__C
803706b8   ti_sysbios_knl_Task_hooks__C
803706c0   xdc_runtime_Startup_firstFxns__A
803706c8   xdc_runtime_Startup_firstFxns__C
803706d0   xdc_runtime_Startup_lastFxns__A
803706d8   xdc_runtime_Startup_lastFxns__C
803706e6   ti_sysbios_knl_Clock_Module__loggerDefined__C
803706ee   ti_sysbios_knl_Semaphore_Module__id__C
803706f6   ti_sysbios_knl_Semaphore_Module__loggerDefined__C
803706f8   ti_sysbios_family_c64p_Exception_exceptionHook__C
803706fc   ti_sysbios_family_c64p_Exception_externalHook__C
80370700   ti_sysbios_family_c64p_Exception_internalHook__C
80370704   ti_sysbios_family_c64p_Exception_nmiHook__C
80370708   ti_sysbios_family_c64p_Hwi_LD_end__C
8037070c   ti_sysbios_family_c64p_Hwi_LM_begin__C
80370710   ti_sysbios_family_c64p_Hwi_Module__diagsEnabled__C
80370714   ti_sysbios_family_c64p_Hwi_Module__diagsIncluded__C
80370718   ti_sysbios_family_c64p_Hwi_Module__diagsMask__C
8037071c   ti_sysbios_family_c64p_Hwi_Module__loggerFxn1__C
80370720   ti_sysbios_family_c64p_Hwi_Module__loggerFxn8__C
80370724   ti_sysbios_family_c64p_Hwi_Module__loggerObj__C
80370728   ti_sysbios_family_c66_Cache_atomicBlockSize__C
8037072c   ti_sysbios_gates_GateMutex_A_badContext__C
80370730   ti_sysbios_gates_GateMutex_Instance_State_sem__O
80370734   ti_sysbios_gates_GateMutex_Module__diagsEnabled__C
80370738   ti_sysbios_gates_GateMutex_Module__diagsIncluded__C
8037073c   ti_sysbios_gates_GateMutex_Module__diagsMask__C
80370740   ti_sysbios_hal_Hwi_E_stackOverflow__C
80370744   ti_sysbios_heaps_HeapBuf_Instance_State_freeList__O
80370748   ti_sysbios_heaps_HeapBuf_Object__count__C
8037074c   ti_sysbios_heaps_HeapBuf_numConstructedHeaps__C
80370750   ti_sysbios_heaps_HeapMem_A_align__C
80370754   ti_sysbios_heaps_HeapMem_A_heapSize__C
80370758   ti_sysbios_heaps_HeapMem_A_invalidFree__C
8037075c   ti_sysbios_heaps_HeapMem_A_zeroBlock__C
80370760   ti_sysbios_heaps_HeapMem_E_memory__C
80370764   ti_sysbios_heaps_HeapMem_Module__diagsEnabled__C
80370768   ti_sysbios_heaps_HeapMem_Module__diagsIncluded__C
8037076c   ti_sysbios_heaps_HeapMem_Module__diagsMask__C
80370770   ti_sysbios_heaps_HeapMem_Module__gateObj__C
80370774   ti_sysbios_heaps_HeapMem_Object__count__C
80370778   ti_sysbios_heaps_HeapMem_reqAlign__C
8037077c   ti_sysbios_knl_Clock_A_badThreadType__C
80370780   ti_sysbios_knl_Clock_LM_begin__C
80370784   ti_sysbios_knl_Clock_LM_tick__C
80370788   ti_sysbios_knl_Clock_LW_delayed__C
8037078c   ti_sysbios_knl_Clock_Module_State_clockQ__O
80370790   ti_sysbios_knl_Clock_Module__diagsEnabled__C
80370794   ti_sysbios_knl_Clock_Module__diagsIncluded__C
80370798   ti_sysbios_knl_Clock_Module__diagsMask__C
8037079c   ti_sysbios_knl_Clock_Module__loggerFxn1__C
803707a0   ti_sysbios_knl_Clock_Module__loggerFxn2__C
803707a4   ti_sysbios_knl_Clock_Module__loggerObj__C
803707a8   ti_sysbios_knl_Clock_tickMode__C
803707ac   ti_sysbios_knl_Clock_tickSource__C
803707b0   ti_sysbios_knl_Semaphore_A_badContext__C
803707b4   ti_sysbios_knl_Semaphore_A_noEvents__C
803707b8   ti_sysbios_knl_Semaphore_A_overflow__C
803707bc   ti_sysbios_knl_Semaphore_A_pendTaskDisabled__C
803707c0   ti_sysbios_knl_Semaphore_Instance_State_pendQ__O
803707c4   ti_sysbios_knl_Semaphore_LM_pend__C
803707c8   ti_sysbios_knl_Semaphore_LM_post__C
803707cc   ti_sysbios_knl_Semaphore_Module__diagsEnabled__C
803707d0   ti_sysbios_knl_Semaphore_Module__diagsIncluded__C
803707d4   ti_sysbios_knl_Semaphore_Module__diagsMask__C
803707d8   ti_sysbios_knl_Semaphore_Module__loggerFxn2__C
803707dc   ti_sysbios_knl_Semaphore_Module__loggerFxn4__C
803707e0   ti_sysbios_knl_Semaphore_Module__loggerObj__C
803707e4   ti_sysbios_knl_Swi_LD_end__C
803707e8   ti_sysbios_knl_Swi_LM_begin__C
803707ec   ti_sysbios_knl_Swi_LM_post__C
803707f0   ti_sysbios_knl_Swi_Module__diagsEnabled__C
803707f4   ti_sysbios_knl_Swi_Module__diagsIncluded__C
803707f8   ti_sysbios_knl_Swi_Module__diagsMask__C
803707fc   ti_sysbios_knl_Swi_Module__loggerFxn1__C
80370800   ti_sysbios_knl_Swi_Module__loggerFxn4__C
80370804   ti_sysbios_knl_Swi_Module__loggerObj__C
80370808   ti_sysbios_knl_Swi_Object__count__C
8037080c   ti_sysbios_knl_Task_A_badPriority__C
80370810   ti_sysbios_knl_Task_A_badTaskState__C
80370814   ti_sysbios_knl_Task_A_badThreadType__C
80370818   ti_sysbios_knl_Task_A_badTimeout__C
8037081c   ti_sysbios_knl_Task_A_noPendElem__C
80370820   ti_sysbios_knl_Task_A_sleepTaskDisabled__C
80370824   ti_sysbios_knl_Task_E_deleteNotAllowed__C
80370828   ti_sysbios_knl_Task_E_spOutOfBounds__C
8037082c   ti_sysbios_knl_Task_E_stackOverflow__C
80370830   ti_sysbios_knl_Task_LD_block__C
80370834   ti_sysbios_knl_Task_LD_exit__C
80370838   ti_sysbios_knl_Task_LD_ready__C
8037083c   ti_sysbios_knl_Task_LM_setPri__C
80370840   ti_sysbios_knl_Task_LM_sleep__C
80370844   ti_sysbios_knl_Task_LM_switch__C
80370848   ti_sysbios_knl_Task_Module_State_inactiveQ__O
8037084c   ti_sysbios_knl_Task_Module_State_terminatedQ__O
80370850   ti_sysbios_knl_Task_Module__diagsEnabled__C
80370854   ti_sysbios_knl_Task_Module__diagsIncluded__C
80370858   ti_sysbios_knl_Task_Module__diagsMask__C
8037085c   ti_sysbios_knl_Task_Module__loggerFxn2__C
80370860   ti_sysbios_knl_Task_Module__loggerFxn4__C
80370864   ti_sysbios_knl_Task_Module__loggerObj__C
80370868   ti_sysbios_knl_Task_Object__count__C
8037086c   ti_sysbios_knl_Task_Object__heap__C
80370870   ti_sysbios_knl_Task_allBlockedFunc__C
80370874   ti_sysbios_knl_Task_defaultStackHeap__C
80370878   ti_sysbios_knl_Task_defaultStackSize__C
8037087c   ti_sysbios_knl_Task_numConstructedTasks__C
80370880   ti_sysbios_knl_Task_numPriorities__C
80370884   ti_sysbios_timers_timer64_Timer_A_notAvailable__C
80370888   ti_sysbios_timers_timer64_Timer_E_cannotSupport__C
8037088c   ti_sysbios_timers_timer64_Timer_Module__diagsEnabled__C
80370890   ti_sysbios_timers_timer64_Timer_Module__diagsIncluded__C
80370894   ti_sysbios_timers_timer64_Timer_Module__diagsMask__C
80370898   ti_sysbios_timers_timer64_Timer_anyMask__C
8037089c   ti_sysbios_timers_timer64_Timer_freqDivisor__C
803708a0   ti_sysbios_timers_timer64_Timer_numLocalTimers__C
803708a4   ti_sysbios_timers_timer64_Timer_numTimerDevices__C
803708a8   xdc_runtime_Assert_E_assertFailed__C
803708ac   xdc_runtime_Core_A_initializedParams__C
803708b0   xdc_runtime_Core_Module__diagsEnabled__C
803708b4   xdc_runtime_Core_Module__diagsIncluded__C
803708b8   xdc_runtime_Core_Module__diagsMask__C
803708bc   xdc_runtime_Error_E_memory__C
803708c0   xdc_runtime_Error_Module__diagsEnabled__C
803708c4   xdc_runtime_Error_Module__diagsIncluded__C
803708c8   xdc_runtime_Error_Module__diagsMask__C
803708cc   xdc_runtime_Error_Module__loggerFxn8__C
803708d0   xdc_runtime_Error_Module__loggerObj__C
803708d4   xdc_runtime_Error_policy__C
803708d8   xdc_runtime_Error_raiseHook__C
803708dc   xdc_runtime_IFilterLogger_Interface__BASE__C
803708e0   xdc_runtime_IGateProvider_Interface__BASE__C
803708e4   xdc_runtime_IHeap_Interface__BASE__C
803708e8   xdc_runtime_ILogger_Interface__BASE__C
803708ec   xdc_runtime_IModule_Interface__BASE__C
803708f0   xdc_runtime_Log_L_error__C
803708f4   xdc_runtime_LoggerBuf_E_badLevel__C
803708f8   xdc_runtime_LoggerBuf_Module__gateObj__C
803708fc   xdc_runtime_LoggerBuf_Object__count__C
80370900   xdc_runtime_LoggerBuf_statusLogger__C
80370904   xdc_runtime_Memory_defaultHeapInstance__C
80370908   xdc_runtime_Startup_execImpl__C
8037090c   xdc_runtime_Startup_maxPasses__C
80370910   xdc_runtime_Startup_sfxnRts__C
80370914   xdc_runtime_Startup_sfxnTab__C
80370918   xdc_runtime_System_Module__gateObj__C
8037091c   xdc_runtime_System_extendFxn__C
80370920   xdc_runtime_System_maxAtexitHandlers__C
80370924   xdc_runtime_Text_charTab__C
80370928   xdc_runtime_Text_nameEmpty__C
8037092c   xdc_runtime_Text_nameStatic__C
80370930   xdc_runtime_Text_nameUnknown__C
80370934   xdc_runtime_Text_nodeTab__C
80370938   xdc_runtime_Text_visitRopeFxn__C
8037093c   ti_sysbios_knl_Swi_Module__id__C
8037093e   ti_sysbios_knl_Swi_Module__loggerDefined__C
80370940   ti_sysbios_knl_Task_Module__id__C
80370942   ti_sysbios_knl_Task_Module__loggerDefined__C
80370944   ti_sysbios_knl_Task_deleteTerminatedTasks__C
80370946   ti_sysbios_knl_Task_initStackFlag__C
80370948   ti_sysbios_timers_timer64_Timer_Module__id__C
8037094a   ti_sysbios_timers_timer64_Timer_startupNeeded__C
8037094c   xdc_runtime_Core_Module__id__C
8037094e   xdc_runtime_Error_Module__loggerDefined__C
80370950   xdc_runtime_Error_maxDepth__C
80370952   xdc_runtime_LoggerBuf_Module__id__C
80370954   xdc_runtime_LoggerBuf_filterByLevel__C
80370956   xdc_runtime_Memory_Module__id__C
80370958   xdc_runtime_Text_charCnt__C
8037095a   xdc_runtime_Text_isLoaded__C
8037095c   xdc_runtime_Text_registryModsLastId__C
8037095e   xdc_runtime_Text_unnamedModsLastId__C
80370960   Qmss_highEoiVector
80370980   queueFree
80372980   qmssGObj
80372d80   ti_sysbios_BIOS_Module__state__V
80372da0   ti_sysbios_family_c64p_EventCombiner_Module__state__V
803731a0   ti_sysbios_family_c64p_Exception_Module__state__V
803731d0   ti_sysbios_family_c64p_Hwi_Module__root__V
803731d8   ti_sysbios_family_c64p_Hwi_Module__state__V
80373240   ti_sysbios_gates_GateHwi_Module__root__V
80373248   ti_sysbios_gates_GateMutex_Module__root__V
80373250   ti_sysbios_hal_Hwi_Module__root__V
80373258   ti_sysbios_hal_Timer_Module__root__V
80373260   ti_sysbios_heaps_HeapBuf_Module__root__V
80373268   ti_sysbios_heaps_HeapBuf_Module__state__V
8037326c   ti_sysbios_heaps_HeapMem_Module__root__V
80373274   ti_sysbios_knl_Clock_Module__root__V
8037327c   ti_sysbios_knl_Clock_Module__state__V
803732a4   ti_sysbios_knl_Queue_Module__root__V
803732ac   ti_sysbios_knl_Semaphore_Module__root__V
803732b4   ti_sysbios_knl_Swi_Module__root__V
803732bc   ti_sysbios_knl_Swi_Module__state__V
803732d8   ti_sysbios_knl_Task_Module__root__V
803732e0   ti_sysbios_knl_Task_Module__state__V
80373324   ti_sysbios_timers_timer64_Timer_Module__root__V
8037332c   ti_sysbios_timers_timer64_Timer_Module__state__V
80373340   xdc_runtime_Error_Module__state__V
80373344   xdc_runtime_LoggerBuf_Module__root__V
8037334c   xdc_runtime_LoggerBuf_Module__state__V
80373354   xdc_runtime_Memory_Module__state__V
80373358   xdc_runtime_Registry_Module__state__V
80373360   xdc_runtime_Startup_Module__state__V
80373368   xdc_runtime_System_Module__state__V
80373374   xdc_runtime_Text_Module__state__V
8037337c   __xdc__init__addr
80373380   _ftable
80373560   ti_sysbios_timers_timer64_Timer_Module_State_0_device__A
803736e0   qmssGblCfgParams
80373800   ti_sysbios_knl_Task_Object__table__V
803738a0   TSK_idle
803738f0   _ipcfg
803739a4   _ft_end
80373a48   ti_sysbios_knl_Swi_Module_State_0_readyQ__A
80373ac8   ti_sysbios_knl_Task_Module_State_0_readyQ__A
80373b48   ti_sysbios_timers_timer64_Timer_Module_State_0_gctrl__A
80373bc8   ti_sysbios_timers_timer64_Timer_Module_State_0_handles__A
80373c48   ti_sysbios_timers_timer64_Timer_Module_State_0_intFreqs__A
80373d40   cppiGblCfgParams
80373db8   ti_sysbios_family_c64p_Hwi_Object__table__V
80373ed0   ti_sysbios_timers_timer64_Timer_Object__table__V
80374020   ti_sysbios_gates_GateMutex_Object__table__V
803740d4   cppiLObj
803740d8   ti_sysbios_knl_Swi_Object__table__V
80374108   _oscfg
8037412c   paLObj
80374130   xdc_runtime_LoggerBuf_Object__table__V
80374158   NIMUDeviceTable
80374160   pstrMsgName
80374180   xdc_runtime_System_Module_State_0_atexitHandlers__A
803741a0   ti_ndk_config_Global_Id2Size
803741f0   ti_sysbios_heaps_HeapMem_Object__table__V
80374234   _lock
80374238   _unlock
80374278   Qmss_lowEoiVector
80374288   _delete_mutexes_ptr
8037428c   _cleanup_ptr
80374290   _dtors_ptr
80374294   __TI_enable_exit_profile_output
80374298   ti_sysbios_hal_Hwi_Object__table__V
803742c0   ti_sysbios_hal_Timer_Object__table__V
803742c8   ti_sysbios_gates_GateHwi_Object__table__V
803742d8   ti_sysbios_knl_Task_Module_State_0_idleTask__A
803742e8   Qmss_cdmaEoiVector
80374348   gDeviceNandBBlist
80375574   gDeviceNand
803755ac   gDeviceNor
803755e4   gDeviceEeprom0
8037561c   gDeviceEeprom1
80375658   emac_port_mode
80375a08   __TI_STATIC_BASE
80375a20   _IGMPInDiscard
80375a24   _IGMPInQuery
80375a28   _IGMPInQueryGroup
80375a2c   _IGMPInResponse
80375a30   _IGMPOutResponse
80375a34   gTxCmdReturnQHnd
80375a38   gTxCmdFreeQHnd
80375a3c   ethSemHandle
80375a74   CONTENT_TYPE_APPLET
80375a78   CONTENT_TYPE_AU
80375a7c   CONTENT_TYPE_CSS
80375a80   CONTENT_TYPE_DOC
80375a84   CONTENT_TYPE_GIF
80375a88   CONTENT_TYPE_HTML
80375a8c   CONTENT_TYPE_JPG
80375a90   CONTENT_TYPE_MPEG
80375a94   CONTENT_TYPE_PDF
80375a98   CONTENT_TYPE_WAV
80375a9c   CONTENT_TYPE_ZIP
80375aa0   CONTENT_TYPE
80375aa4   CONTENT_LENGTH
80375aa8   CRLF
80375aac   DEFAULT_NAME
80375ab0   HTTP_VER
80375ab4   SPACE
80375ab8   PITCount
80375abc   PITUsed
80375ac0   PITHigh
80375adc   VerStr
80375ae0   HostName
80375ae4   LocalIPAddr
80375ae8   LocalIPMask
80375aec   GatewayIP
80375af0   DomainName
80375af4   DNSServer
80375b68   _IGMPForceVersion1
80375b84   _ICMPInErrors
80375b88   _ICMPOutErrors
80375b8c   _IPExecuting
80375b9c   gFragQList
80375bbc   tcp_iss
80375bc0   ptTimeFirst
80375bc4   pt6TimeFirst
80375bc8   tcp6_iss
80375bd4   platform_errno
80375bd8   platform_init_return_code
80375be8   httpErrorResponseHook
80375bf4   _IPReasmPtr
80375bfc   gMLDNodeList
80375c14   qmssLObjIsValid
80375c18   IPV6_MAX_MULTICAST_SOLICIT
80375c1c   IPV6_MAX_UNICAST_SOLICIT
80375c20   IPV6_RETRANS_TIME
80375c24   IPV6_DELAY_FIRST_PROBE_TIME
80375c28   IPV6_REACHABLE_TIME
80375c2c   IPV6_MAX_RTR_SOLICITATION_DELAY
80375c30   IPV6_RTR_SOLICITATION_INTERVAL
80375c34   IPV6_MAX_RTR_SOLICITATIONS
80375c38   INFINITE_LT
80375c3c   ti_ndk_config_Global_rawPageSize
80375c40   ti_ndk_config_Global_rawPageCount
80375c44   ti_ndk_config_Global_smallest
80375c48   ti_ndk_config_Global_largest
80375c4c   ti_ndk_config_Global_numFrameBuf
80375c50   ti_ndk_config_Global_sizeFrameBuf
80375c80   cppiObject
80375e80   __CIOBUF_
80376000   ti_sysbios_family_c64p_Hwi0
80376000   ti_sysbios_family_c64p_Hwi_int0
80376020   ti_sysbios_family_c64p_Hwi_int1
80376040   ti_sysbios_family_c64p_Hwi_int2
80376060   ti_sysbios_family_c64p_Hwi_int3
80376080   ti_sysbios_family_c64p_Hwi_int4
803760a0   ti_sysbios_family_c64p_Hwi_int5
803760c0   ti_sysbios_family_c64p_Hwi_int6
803760e0   ti_sysbios_family_c64p_Hwi_int7
80376100   ti_sysbios_family_c64p_Hwi_int8
80376120   ti_sysbios_family_c64p_Hwi_int9
80376140   ti_sysbios_family_c64p_Hwi_int10
80376160   ti_sysbios_family_c64p_Hwi_int11
80376180   ti_sysbios_family_c64p_Hwi_int12
803761a0   ti_sysbios_family_c64p_Hwi_int13
803761c0   ti_sysbios_family_c64p_Hwi_int14
803761e0   ti_sysbios_family_c64p_Hwi_int15
803771e0   __TI_Handler_Table_Base
803771ec   __TI_Handler_Table_Limit
80377250   __TI_CINIT_Base
803772d8   __TI_CINIT_Limit
ffffffff   __TI_pprof_out_hndl
ffffffff   __TI_prof_data_size
ffffffff   __TI_prof_data_start
ffffffff   __binit__
ffffffff   __c_args__
ffffffff   binit
UNDEFED    __TI_INITARRAY_Base
UNDEFED    __TI_INITARRAY_Limit

[1629 symbols]
